******************************************************************************
                  TI ARM Linker PC v16.9.0                     
******************************************************************************
>> Linked Wed Mar 01 13:34:05 2017

OUTPUT FILE NAME:   <CC2650DK_7ID_TI_CC2650F128_Protocol_power_save.out>
ENTRY POINT SYMBOL: "ResetISR"  address: 00004bb9


MEMORY CONFIGURATION

         name            origin    length      used     unused   attr    fill
----------------------  --------  ---------  --------  --------  ----  --------
  FLASH                 00000000   00020000  000065c1  00019a3f  R  X
  SRAM                  20000000   00005000  00002d2b  000022d5  RW X


SEGMENT ALLOCATION MAP

run origin  load origin   length   init length attrs members
----------  ----------- ---------- ----------- ----- -------
00000000    00000000    0000003c   0000003c    r--
  00000000    00000000    0000003c   0000003c    r-- .resetVecs
00000100    00000100    00006540   00006540    r-x
  00000100    00000100    0000003c   0000003c    r-- .const:ti_sysbios_knl_Task_Object__PARAMS__C
  0000013c    0000013c    00000034   00000034    r-- .const:ti_sysbios_knl_Mailbox_Object__PARAMS__C
  00000170    00000170    00000030   00000030    r-- .const:ti_sysbios_family_arm_m3_Hwi_Object__PARAMS__C
  000001a0    000001a0    0000002c   0000002c    r-- .const:ti_sysbios_hal_Hwi_Object__PARAMS__C
  000001cc    000001cc    00000028   00000028    r-- .const:ti_sysbios_heaps_HeapMem_Module__FXNS__C
  000001f4    000001f4    00000028   00000028    r-- .const:ti_sysbios_knl_Swi_Object__PARAMS__C
  0000021c    0000021c    00000024   00000024    r-- .const:ti_sysbios_gates_GateHwi_Module__FXNS__C
  00000240    00000240    00000024   00000024    r-- .const:ti_sysbios_gates_GateMutex_Module__FXNS__C
  00000264    00000264    00000024   00000024    r-- .const:ti_sysbios_heaps_HeapMem_Object__PARAMS__C
  00000288    00000288    00000024   00000024    r-- .const:ti_sysbios_knl_Clock_Object__PARAMS__C
  000002ac    000002ac    00000024   00000024    r-- .const:ti_sysbios_knl_Semaphore_Object__PARAMS__C
  000002d0    000002d0    00000020   00000020    r-- .const:ti_sysbios_family_arm_m3_Hwi_Object__DESC__C
  000002f0    000002f0    00000020   00000020    r-- .const:ti_sysbios_gates_GateHwi_Object__DESC__C
  00000310    00000310    00000020   00000020    r-- .const:ti_sysbios_gates_GateMutex_Object__DESC__C
  00000330    00000330    00000020   00000020    r-- .const:ti_sysbios_hal_Hwi_Object__DESC__C
  00000350    00000350    00000020   00000020    r-- .const:ti_sysbios_heaps_HeapMem_Object__DESC__C
  00000370    00000370    00000020   00000020    r-- .const:ti_sysbios_knl_Clock_Object__DESC__C
  00000390    00000390    00000020   00000020    r-- .const:ti_sysbios_knl_Mailbox_Object__DESC__C
  000003b0    000003b0    00000020   00000020    r-- .const:ti_sysbios_knl_Queue_Object__DESC__C
  000003d0    000003d0    00000020   00000020    r-- .const:ti_sysbios_knl_Semaphore_Object__DESC__C
  000003f0    000003f0    00000020   00000020    r-- .const:ti_sysbios_knl_Swi_Object__DESC__C
  00000410    00000410    00000020   00000020    r-- .const:ti_sysbios_knl_Task_Object__DESC__C
  00000430    00000430    00000018   00000018    r-- .const:ti_sysbios_gates_GateHwi_Object__PARAMS__C
  00000448    00000448    00000018   00000018    r-- .const:ti_sysbios_gates_GateMutex_Object__PARAMS__C
  00000460    00000460    00000018   00000018    r-- .const:ti_sysbios_knl_Queue_Object__PARAMS__C
  00000478    00000478    00000008   00000008    r-- .const:ti_sysbios_knl_Idle_funcList__C
  00000484    00000484    00000004   00000004    r-- .const:ti_sysbios_family_arm_cc26xx_Timer_startupNeeded__C
  00000488    00000488    00000004   00000004    r-- .const:ti_sysbios_family_arm_m3_Hwi_E_alreadyDefined__C
  0000048c    0000048c    00000004   00000004    r-- .const:ti_sysbios_family_arm_m3_Hwi_E_hwiLimitExceeded__C
  00000490    00000490    00000004   00000004    r-- .const:ti_sysbios_family_arm_m3_Hwi_NUM_INTERRUPTS__C
  00000494    00000494    00000004   00000004    r-- .const:ti_sysbios_family_arm_m3_Hwi_Object__count__C
  00000498    00000498    00000004   00000004    r-- .const:ti_sysbios_family_arm_m3_Hwi_Object__table__C
  0000049c    0000049c    00000004   00000004    r-- .const:ti_sysbios_family_arm_m3_Hwi_ccr__C
  000004a0    000004a0    00000004   00000004    r-- .const:ti_sysbios_family_arm_m3_Hwi_excHandlerFunc__C
  000004a4    000004a4    00000004   00000004    r-- .const:ti_sysbios_family_arm_m3_Hwi_nullIsrFunc__C
  000004a8    000004a8    00000004   00000004    r-- .const:ti_sysbios_family_arm_m3_Hwi_numSparseInterrupts__C
  000004ac    000004ac    00000004   00000004    r-- .const:ti_sysbios_family_arm_m3_Hwi_priGroup__C
  000004b0    000004b0    00000004   00000004    r-- .const:ti_sysbios_family_arm_m3_TaskSupport_stackAlignment__C
  000004b4    000004b4    00000004   00000004    r-- .const:ti_sysbios_heaps_HeapMem_E_memory__C
  000004b8    000004b8    00000004   00000004    r-- .const:ti_sysbios_heaps_HeapMem_Module__gateObj__C
  000004bc    000004bc    00000004   00000004    r-- .const:ti_sysbios_heaps_HeapMem_Object__count__C
  000004c0    000004c0    00000004   00000004    r-- .const:ti_sysbios_heaps_HeapMem_Object__table__C
  000004c4    000004c4    00000004   00000004    r-- .const:ti_sysbios_heaps_HeapMem_reqAlign__C
  000004c8    000004c8    00000004   00000004    r-- .const:ti_sysbios_knl_Clock_serviceMargin__C
  000004cc    000004cc    00000004   00000004    r-- .const:ti_sysbios_knl_Mailbox_Object__count__C
  000004d0    000004d0    00000004   00000004    r-- .const:ti_sysbios_knl_Mailbox_Object__table__C
  000004d4    000004d4    00000004   00000004    r-- .const:ti_sysbios_knl_Queue_Object__count__C
  000004d8    000004d8    00000004   00000004    r-- .const:ti_sysbios_knl_Queue_Object__table__C
  000004dc    000004dc    00000004   00000004    r-- .const:ti_sysbios_knl_Swi_Object__count__C
  000004e0    000004e0    00000004   00000004    r-- .const:ti_sysbios_knl_Swi_Object__table__C
  000004e4    000004e4    00000004   00000004    r-- .const:ti_sysbios_knl_Swi_numPriorities__C
  000004e8    000004e8    00000004   00000004    r-- .const:ti_sysbios_knl_Task_Object__count__C
  000004ec    000004ec    00000004   00000004    r-- .const:ti_sysbios_knl_Task_Object__table__C
  000004f0    000004f0    00000004   00000004    r-- .const:ti_sysbios_knl_Task_allBlockedFunc__C
  000004f4    000004f4    00000004   00000004    r-- .const:ti_sysbios_knl_Task_defaultStackHeap__C
  000004f8    000004f8    00000004   00000004    r-- .const:ti_sysbios_knl_Task_defaultStackSize__C
  000004fc    000004fc    00000004   00000004    r-- .const:ti_sysbios_knl_Task_numConstructedTasks__C
  00000502    00000502    00000002   00000002    r-- .const:ti_sysbios_family_arm_cc26xx_Timer_Module__id__C
  00000504    00000504    00000002   00000002    r-- .const:ti_sysbios_family_arm_cc26xx_TimestampProvider_useClockTimer__C
  00000506    00000506    00000002   00000002    r-- .const:ti_sysbios_family_arm_m3_Hwi_Module__id__C
  00000508    00000508    00000002   00000002    r-- .const:ti_sysbios_gates_GateHwi_Module__id__C
  0000050a    0000050a    00000002   00000002    r-- .const:ti_sysbios_gates_GateMutex_Module__id__C
  0000050c    0000050c    00000002   00000002    r-- .const:ti_sysbios_heaps_HeapMem_Module__id__C
  0000050e    0000050e    00000002   00000002    r-- .const:ti_sysbios_knl_Task_initStackFlag__C
  00000510    00000510    00000001   00000001    r-- .const:ti_sysbios_knl_Clock_tickMode__C
  00000514    00000514    00000008   00000008    r-- .const:xdc_runtime_Startup_firstFxns__C
  0000051c    0000051c    00000008   00000008    r-- .const:xdc_runtime_Startup_lastFxns__C
  00000524    00000524    00000004   00000004    r-- .const:xdc_runtime_Assert_E_assertFailed__C
  00000528    00000528    00000004   00000004    r-- .const:xdc_runtime_Error_E_memory__C
  0000052c    0000052c    00000004   00000004    r-- .const:xdc_runtime_Error_policyFxn__C
  00000530    00000530    00000004   00000004    r-- .const:xdc_runtime_IGateProvider_Interface__BASE__C
  00000534    00000534    00000004   00000004    r-- .const:xdc_runtime_IHeap_Interface__BASE__C
  00000538    00000538    00000004   00000004    r-- .const:xdc_runtime_IModule_Interface__BASE__C
  0000053c    0000053c    00000004   00000004    r-- .const:xdc_runtime_Main_Module__diagsEnabled__C
  00000540    00000540    00000004   00000004    r-- .const:xdc_runtime_Main_Module__diagsIncluded__C
  00000544    00000544    00000004   00000004    r-- .const:xdc_runtime_Main_Module__diagsMask__C
  00000548    00000548    00000004   00000004    r-- .const:xdc_runtime_Memory_defaultHeapInstance__C
  0000054c    0000054c    00000004   00000004    r-- .const:xdc_runtime_Startup_execImpl__C
  00000550    00000550    00000004   00000004    r-- .const:xdc_runtime_Startup_maxPasses__C
  00000554    00000554    00000004   00000004    r-- .const:xdc_runtime_Startup_sfxnRts__C
  00000558    00000558    00000004   00000004    r-- .const:xdc_runtime_Startup_sfxnTab__C
  0000055c    0000055c    00000004   00000004    r-- .const:xdc_runtime_Startup_startModsFxn__C
  00000560    00000560    00000004   00000004    r-- .const:xdc_runtime_SysCallback_abortFxn__C
  00000564    00000564    00000004   00000004    r-- .const:xdc_runtime_SysCallback_exitFxn__C
  00000568    00000568    00000004   00000004    r-- .const:xdc_runtime_System_abortFxn__C
  0000056c    0000056c    00000004   00000004    r-- .const:xdc_runtime_System_exitFxn__C
  00000570    00000570    00000004   00000004    r-- .const:xdc_runtime_System_maxAtexitHandlers__C
  00000574    00000574    00000004   00000004    r-- .const:xdc_runtime_Text_charTab__C
  00000578    00000578    00000004   00000004    r-- .const:xdc_runtime_Text_nameEmpty__C
  0000057c    0000057c    00000004   00000004    r-- .const:xdc_runtime_Text_nameStatic__C
  00000580    00000580    00000004   00000004    r-- .const:xdc_runtime_Text_nameUnknown__C
  00000584    00000584    00000002   00000002    r-- .const:xdc_runtime_Main_Module__id__C
  00000586    00000586    00000002   00000002    r-- .const:xdc_runtime_Memory_Module__id__C
  00000588    00000588    00000002   00000002    r-- .const:xdc_runtime_Text_charCnt__C
  0000058a    0000058a    00000002   00000002    r-- .const:xdc_runtime_Text_isLoaded__C
  0000058c    0000058c    00000001   00000001    r-- .const:xdc_runtime_Error_policy__C
  00000590    00000590    00000004   00000004    r-- .const:ti_sysbios_rom_ROM_AONRTCChannelEnable
  00000594    00000594    00000004   00000004    r-- .const:ti_sysbios_rom_ROM_AONRTCCompareValueSet
  00000598    00000598    00000004   00000004    r-- .const:ti_sysbios_rom_ROM_AONRTCCurrentCompareValueGet
  0000059c    0000059c    00000004   00000004    r-- .const:ti_sysbios_rom_ROM_AONRTCEventClear
  000005a0    000005a0    00000004   00000004    r-- .const:ti_sysbios_rom_ROM_ti_sysbios_family_arm_cc26xx_Timer_getCount64__E
  000005a4    000005a4    00000004   00000004    r-- .const:ti_sysbios_rom_ROM_ti_sysbios_family_arm_cc26xx_Timer_getCurrentTick__E
  000005a8    000005a8    00000004   00000004    r-- .const:ti_sysbios_rom_ROM_ti_sysbios_family_arm_cc26xx_Timer_getMaxTicks__E
  000005ac    000005ac    00000004   00000004    r-- .const:ti_sysbios_rom_ROM_ti_sysbios_family_arm_cc26xx_Timer_initDevice__I
  000005b0    000005b0    00000004   00000004    r-- .const:ti_sysbios_rom_ROM_ti_sysbios_family_arm_cc26xx_Timer_setNextTick__E
  000005b4    000005b4    00000004   00000004    r-- .const:ti_sysbios_rom_ROM_ti_sysbios_family_arm_cc26xx_Timer_setThreshold__I
  000005b8    000005b8    00000004   00000004    r-- .const:ti_sysbios_rom_ROM_ti_sysbios_family_arm_cc26xx_Timer_start__E
  000005bc    000005bc    00000004   00000004    r-- .const:ti_sysbios_rom_ROM_ti_sysbios_family_arm_cc26xx_TimestampProvider_get32__E
  000005c0    000005c0    00000004   00000004    r-- .const:ti_sysbios_rom_ROM_xdc_runtime_Startup_getState__I
  000005c4    000005c4    00000004   00000004    r-- .const:ti_sysbios_rom_ROM_xdc_runtime_System_SupportProxy_abort__E
  000005c8    000005c8    00000004   00000004    r-- .const:ti_sysbios_rom_ROM_xdc_runtime_System_SupportProxy_exit__E
  000005cc    000005cc    00000004   00000004    r-- .const:ti_sysbios_gates_GateMutex_Instance_State_sem__O
  000005d0    000005d0    00000004   00000004    r-- .const:ti_sysbios_knl_Clock_Module_State_clockQ__O
  000005d4    000005d4    00000004   00000004    r-- .const:ti_sysbios_knl_Mailbox_Instance_State_dataQue__O
  000005d8    000005d8    00000004   00000004    r-- .const:ti_sysbios_knl_Mailbox_Instance_State_dataSem__O
  000005dc    000005dc    00000004   00000004    r-- .const:ti_sysbios_knl_Mailbox_Instance_State_freeQue__O
  000005e0    000005e0    00000004   00000004    r-- .const:ti_sysbios_knl_Mailbox_Instance_State_freeSem__O
  000005e4    000005e4    00000004   00000004    r-- .const:ti_sysbios_knl_Semaphore_Instance_State_pendQ__O
  000005e8    000005e8    00000004   00000004    r-- .const:ti_sysbios_knl_Task_Module_State_inactiveQ__O
  000005ec    000005ec    00005a18   00005a18    r-x .text
  00006004    00006004    00000375   00000375    r-- .const
  00006380    00006380    000002c0   000002c0    r-- .cinit
0001ffa8    0001ffa8    00000058   00000058    r--
  0001ffa8    0001ffa8    00000058   00000058    r-- .ccfg
20000000    20000000    000000c8   00000000    rw-
  20000000    20000000    000000c8   00000000    rw- .vecs
20000100    20000100    00000104   00000000    rw-
  20000100    20000100    00000044   00000000    rw- .data:ti_sysbios_knl_Task_Module__state__V
  20000144    20000144    00000034   00000000    rw- .data:ti_sysbios_family_arm_m3_Hwi_Module__state__V
  20000178    20000178    0000002c   00000000    rw- .data:ti_sysbios_knl_Clock_Module__state__V
  200001a4    200001a4    00000024   00000000    rw- .data:ti_sysbios_BIOS_Module__state__V
  200001c8    200001c8    0000001c   00000000    rw- .data:ti_sysbios_knl_Swi_Module__state__V
  200001e4    200001e4    00000008   00000000    rw- .data:ti_sysbios_family_arm_cc26xx_Timer_Module__state__V
  200001ec    200001ec    00000004   00000000    rw- .data:ti_sysbios_family_arm_cc26xx_TimestampProvider_Module__state__V
  200001f0    200001f0    00000008   00000000    rw- .data:xdc_runtime_Startup_Module__state__V
  200001f8    200001f8    00000008   00000000    rw- .data:xdc_runtime_System_Module__state__V
  20000200    20000200    00000004   00000000    rw- .data:xdc_runtime_Memory_Module__state__V
20000430    20000430    00000010   00000000    rw-
  20000430    20000430    00000010   00000000    rw- .TI.bound:dmaSpi0RxControlTableEntry
20000440    20000440    00000010   00000000    rw-
  20000440    20000440    00000010   00000000    rw- .TI.bound:dmaSpi0TxControlTableEntry
20000500    20000500    00000010   00000000    rw-
  20000500    20000500    00000010   00000000    rw- .TI.bound:dmaSpi1RxControlTableEntry
20000510    20000510    00002834   00000000    rw-
  20000510    20000510    00000010   00000000    rw- .TI.bound:dmaSpi1TxControlTableEntry
  20000520    20000520    00002493   00000000    rw- .bss
  200029b8    200029b8    0000038c   00000000    rw- .data
20004d00    20004d00    00000300   00000000    rw-
  20004d00    20004d00    00000300   00000000    rw- .stack


SECTION ALLOCATION MAP

 output                                  attributes/
section   page    origin      length       input sections
--------  ----  ----------  ----------   ----------------
.text      0    000005ec    00005a18     
                  000005ec    00000324     rtsv7M3_T_le_eabi.lib : trgdrv.obj (.text)
                  00000910    00000228     drivers_cc26xxware.aem3 : PowerCC26XX.oem3 (.text:Power_sleep)
                  00000b38    00000204     driverlib.lib : sys_ctrl.obj (.text:NOROM_SysCtrlSetRechargeBeforePowerDown)
                  00000d3c    000001f4     rtsv7M3_T_le_eabi.lib : ull_div_t2.obj (.text)
                  00000f30    000001d0     drivers_cc26xxware.aem3 : PowerCC26XX_calibrateRCOSC.oem3 (.text:calibrateRcoscHf1)
                  00001100    000001c4                             : PINCC26XX.oem3 (.text:PIN_init)
                  000012c4    00000190                             : UARTCC26XX.oem3 (.text:UARTCC26XX_open)
                  00001454    00000184                             : PowerCC26XX_calibrateRCOSC.oem3 (.text:PowerCC26XX_doCalibrate)
                  000015d8    00000160                             : SPICC26XXDMA.oem3 (.text:SPICC26XXDMA_initIO)
                  00001738    00000148                             : SPICC26XXDMA.oem3 (.text:SPICC26XXDMA_open)
                  00001880    00000130     driverlib.lib : setup.obj (.text:NOROM_SetupAfterColdResetWakeupFromShutDownCfg3)
                  000019b0    0000011c     drivers_cc26xxware.aem3 : PowerCC26XX.oem3 (.text:Power_init)
                  00001acc    00000118     main.obj (.text:initialization)
                  00001be4    000000fc     drivers_cc26xxware.aem3 : UARTCC26XX.oem3 (.text:UARTCC26XX_write)
                  00001ce0    000000f8                             : I2CCC26XX.oem3 (.text:I2CCC26XX_open)
                  00001dd8    000000f8     main.obj (.text:main)
                  00001ed0    000000ec     drivers_cc26xxware.aem3 : SPICC26XXDMA.oem3 (.text:SPICC26XXDMA_transferCancel)
                  00001fbc    000000ec                             : UARTCC26XX.oem3 (.text:UARTCC26XX_hwiIntFxn)
                  000020a8    000000ec     time_fxn.obj (.text:timer_task)
                  00002194    000000e8     drivers_cc26xxware.aem3 : I2CCC26XX.oem3 (.text:I2CCC26XX_hwiFxn)
                  0000227c    000000e4     driverlib.lib : setup.obj (.text:NOROM_SetupAfterColdResetWakeupFromShutDownCfg2)
                  00002360    000000d8     time_fxn.obj (.text:blink_task)
                  00002438    000000d4     drivers_cc26xxware.aem3 : PowerCC26XX.oem3 (.text:Power_releaseDependency)
                  0000250c    000000d4                             : SPICC26XXDMA.oem3 (.text:SPICC26XXDMA_configDMA)
                  000025e0    000000d4     main.obj (.text:create_task)
                  000026b4    000000d0     drivers_cc26xxware.aem3 : PowerCC26XX.oem3 (.text:Power_setDependency)
                  00002784    000000cc     driverlib.lib : setup.obj (.text:TrimAfterColdResetWakeupFromShutDown)
                  00002850    000000c8     drivers_cc26xxware.aem3 : UARTCC26XX.oem3 (.text:UARTCC26XX_initHw)
                  00002918    000000c4                             : SPICC26XXDMA.oem3 (.text:SPICC26XXDMA_transfer)
                  000029dc    000000c2                             : I2CCC26XX.oem3 (.text:I2CCC26XX_transfer)
                  00002a9e    00000002                             : SPICC26XXDMA.oem3 (.text:SPICC26XXDMA_serviceISR)
                  00002aa0    000000c0     driverlib.lib : aux_adc.obj (.text:NOROM_AUXADCEnableSync)
                  00002b60    000000bc     power_cc26xx_tirtos.aem3 : PowerCC26XX_tirtos.oem3 (.text:PowerCC26XX_standbyPolicy)
                  00002c1c    000000bc     drivers_cc26xxware.aem3 : UARTCC26XX.oem3 (.text:UARTCC26XX_read)
                  00002cd8    000000b8                             : PINCC26XX.oem3 (.text:PINCC26XX_setIoCfg)
                  00002d90    000000b0     lora.obj (.text:set_lora_mode)
                  00002e40    000000ac     ext_flash.obj (.text:extFlashErase)
                  00002eec    000000a4     drivers_cc26xxware.aem3 : ADCCC26XX.oem3 (.text:ADCCC26XX_open)
                  00002f90    000000a4     driverlib.lib : setup.obj (.text:NOROM_SetupTrimDevice)
                  00003034    000000a2     drivers_cc26xxware.aem3 : SPICC26XXDMA.oem3 (.text:SPICC26XXDMA_hwiFxn)
                  000030d6    00000002                             : PowerCC26XX.oem3 (.text:emptyClockFunc)
                  000030d8    000000a0     auto_init.aem3 : auto_init.oem3 (.text)
                  00003178    0000009c     rtsv7M3_T_le_eabi.lib : memcpy_t2.obj (.text)
                  00003214    00000098     rom_sysbios.aem3 : rom_sysbios.obj (.text:ti_sysbios_knl_Clock_workFuncDynamic__E)
                  000032ac    00000094     driverlib.lib : aux_adc.obj (.text:NOROM_AUXADCDisable)
                  00003340    00000094     drivers_cc26xxware.aem3 : PINCC26XX.oem3 (.text:PIN_open)
                  000033d4    00000094                             : UARTCC26XX.oem3 (.text:writeFinishedDoCallback)
                  00003468    00000090                             : I2CCC26XX.oem3 (.text:I2CCC26XX_cancel)
                  000034f8    00000090                             : PowerCC26XX.oem3 (.text:switchXOSCHFclockFunc)
                  00003588    0000008c                             : I2CCC26XX.oem3 (.text:I2CCC26XX_primeTransfer)
                  00003614    0000008c                             : SPICC26XXDMA.oem3 (.text:SPICC26XXDMA_control)
                  000036a0    0000008c                             : UARTCC26XX.oem3 (.text:UARTCC26XX_initIO)
                  0000372c    0000008c                             : UARTCC26XX.oem3 (.text:UARTCC26XX_writeCancel)
                  000037b8    0000008c     ext_flash.obj (.text:extFlashOpen)
                  00003844    00000080     drivers_cc26xxware.aem3 : ADCCC26XX.oem3 (.text:ADCCC26XX_convert)
                  000038c4    0000007c                             : PowerCC26XX.oem3 (.text:disableLFClockQualifiers)
                  00003940    0000007a     rtsv7M3_T_le_eabi.lib : memset_t2.obj (.text)
                  000039ba    00000002     rom_sysbios.aem3 : rom_sysbios.obj (.text:ti_sysbios_BIOS_linkedWithIncorrectBootLibrary__E)
                  000039bc    00000078     driverlib.lib : setup.obj (.text:NOROM_SetupAfterColdResetWakeupFromShutDownCfg1)
                  00003a34    00000078     drivers_cc26xxware.aem3 : UARTCC26XX.oem3 (.text:UARTCC26XX_close)
                  00003aac    00000078     receive_fxn.obj (.text:write_lora)
                  00003b24    00000074     drivers_cc26xxware.aem3 : PowerCC26XX_calibrateRCOSC.oem3 (.text:PowerCC26XX_auxISR)
                  00003b98    00000074                             : PowerCC26XX_calibrateRCOSC.oem3 (.text:calibrateRcoscHf2)
                  00003c0c    00000074     rom_sysbios.aem3 : rom_sysbios.obj (.text:ti_sysbios_family_arm_cc26xx_Timer_start__E)
                  00003c80    00000074     drivers_cc26xxware.aem3 : UARTCC26XX.oem3 (.text:writeTxFifoFlush)
                  00003cf4    00000070     driverlib.lib : chipinfo.obj (.text:NOROM_ChipInfo_GetHwRevision)
                  00003d64    00000070     drivers_cc26xxware.aem3 : UARTCC26XX.oem3 (.text:UARTCC26XX_readCancel)
                  00003dd4    00000070     bsp_spi.obj (.text:bspSpiOpen)
                  00003e44    0000006c     driverlib.lib : setup.obj (.text:NOROM_SetupGetTrimForAmpcompCtrl)
                  00003eb0    0000006c     drivers_cc26xxware.aem3 : PINCC26XX.oem3 (.text:PIN_add)
                  00003f1c    0000006c                             : PowerCC26XX.oem3 (.text:PowerCC26XX_calibrate)
                  00003f88    00000068     driverlib.lib : setup.obj (.text:NOROM_SetupGetTrimForAnabypassValue1)
                  00003ff0    00000068                   : sys_ctrl.obj (.text:NOROM_SysCtrl_DCDC_VoltageConditionalControl)
                  00004058    00000068     rtsv7M3_T_le_eabi.lib : copy_decompress_lzss.obj (.text:decompress:lzss)
                  000040c0    00000068                           : trgmsg.obj (.text)
                  00004128    00000068     time_fxn.obj (.text:timer_fxn)
                  00004190    00000064     drivers_cc26xxware.aem3 : I2CCC26XX.oem3 (.text:I2CCC26XX_close)
                  000041f4    00000064                             : I2CCC26XX.oem3 (.text:I2CCC26XX_initIO)
                  00004258    00000060                             : PowerCC26XX_calibrateRCOSC.oem3 (.text:PowerCC26XX_RCOSC_clockFunc)
                  000042b8    00000060                             : SPICC26XXDMA.oem3 (.text:SPICC26XXDMA_initHw)
                  00004318    00000060                             : PowerCC26XX_calibrateRCOSC.oem3 (.text:updateSubSecInc)
                  00004378    0000005c     driverlib.lib : osc.obj (.text:NOROM_OSCHF_AttemptToSwitchToXosc)
                  000043d4    0000005c                   : sys_ctrl.obj (.text:NOROM_SysCtrlAdjustRechargeAfterPowerDown)
                  00004430    0000005c     drivers_cc26xxware.aem3 : PINCC26XX.oem3 (.text:PIN_remove)
                  0000448c    0000005c                             : UDMACC26XX.oem3 (.text:UDMACC26XX_open)
                  000044e8    0000005c     protocol_pem3.oem3 (.text:xdc_runtime_Startup_getState__I)
                  00004544    0000005a     drivers_cc26xxware.aem3 : SPICC26XXDMA.oem3 (.text:SPICC26XXDMA_close)
                  0000459e    00000058                             : I2CCC26XX.oem3 (.text:I2CCC26XX_swiFxn)
                  000045f6    00000002     protocol_pem3.oem3 (.text:ti_sysbios_BIOS_nullFunc__I)
                  000045f8    00000058     drivers_cc26xxware.aem3 : PowerCC26XX_calibrateRCOSC.oem3 (.text:PowerCC26XX_initiateCalibration)
                  00004650    00000058                             : UARTCC26XX.oem3 (.text:UARTCC26XX_control)
                  000046a8    00000054     bsp_spi.obj (.text:bspSpiClose)
                  000046fc    00000054     drivers_cc26xxware.aem3 : PowerCC26XX.oem3 (.text:configureXOSCHF)
                  00004750    00000052                             : SPICC26XXDMA.oem3 (.text:SPICC26XXDMA_swiFxn)
                  000047a2    00000002     rom_sysbios.aem3 : rom_sysbios.obj (.text:ti_sysbios_knl_Clock_triggerFunc__I)
                  000047a4    00000050     driverlib.lib : setup.obj (.text:NOROM_SetupSetCacheModeAccordingToCcfgSetting)
                  000047f4    00000050     ext_flash.obj (.text:extFlashVerifyPart)
                  00004844    0000004c     driverlib.lib : osc.obj (.text:NOROM_OSCClockSourceSet)
                  00004890    0000004c     drivers_cc26xxware.aem3 : UARTCC26XX.oem3 (.text:UARTCC26XX_swiIntFxn)
                  000048dc    0000004c     ext_flash.obj (.text:extFlashWaitReady)
                  00004928    0000004c     rtsv7M3_T_le_eabi.lib : cpy_tbl.obj (.text)
                  00004974    0000004c     drivers_cc26xxware.aem3 : UARTCC26XX.oem3 (.text:startTxFifoEmptyClk)
                  000049c0    00000048                             : I2CCC26XX.oem3 (.text:I2CCC26XX_initHw)
                  00004a08    00000048     driverlib.lib : chipinfo.obj (.text:NOROM_ChipInfo_GetChipFamily)
                  00004a50    00000048                   : ddi.obj (.text:NOROM_DDI16BitfieldWrite)
                  00004a98    00000048     drivers_cc26xxware.aem3 : PINCC26XX.oem3 (.text:PIN_setOutputEnable)
                  00004ae0    00000048                             : PINCC26XX.oem3 (.text:PIN_swi)
                  00004b28    00000048     ext_flash.obj (.text:extFlashPowerStandby)
                  00004b70    00000048     drivers_cc26xxware.aem3 : PowerCC26XX.oem3 (.text:notify)
                  00004bb8    00000044     boot.aem3 : boot.oem3 (.text)
                  00004bfc    00000044     rom_sysbios.aem3 : rom_sysbios.obj (.text:xdc_runtime_SysMin_flush__E)
                  00004c40    00000040     driverlib.lib : ddi.obj (.text:NOROM_DDI16BitfieldRead)
                  00004c80    00000040     ext_flash.obj (.text:extFlashClose)
                  00004cc0    0000003c     drivers_cc26xxware.aem3 : ADCCC26XX.oem3 (.text:ADCCC26XX_close)
                  00004cfc    0000003c     driverlib.lib : osc.obj (.text:NOROM_OSC_HPOSCRelativeFrequencyOffsetGet)
                  00004d38    0000003c     drivers_cc26xxware.aem3 : PINCC26XX.oem3 (.text:PINCC26XX_getConfig)
                  00004d74    0000003c                             : PINCC26XX.oem3 (.text:PIN_setOutputValue)
                  00004db0    0000003c                             : SPICC26XXDMA.oem3 (.text:SPICC26XXDMA_csnCallback)
                  00004dec    00000038                             : ADCCC26XX.oem3 (.text:ADCCC26XX_convertRawToMicroVolts)
                  00004e24    00000038                             : ADC.oem3 (.text:ADC_init)
                  00004e5c    00000038                             : I2C.oem3 (.text:I2C_init)
                  00004e94    00000038                             : PINCC26XX.oem3 (.text:PIN_setInterrupt)
                  00004ecc    00000038                             : SPI.oem3 (.text:SPI_init)
                  00004f04    00000038                             : UART.oem3 (.text:UART_init)
                  00004f3c    00000038     bsp_spi.obj (.text:bspSpiRead)
                  00004f74    00000038     bsp_spi.obj (.text:bspSpiWrite)
                  00004fac    00000038     drivers_cc26xxware.aem3 : UARTCC26XX.oem3 (.text:readData)
                  00004fe4    00000038     rom_sysbios.aem3 : rom_sysbios.obj (.text:ti_sysbios_family_arm_cc26xx_Timer_getCurrentTick__E)
                  0000501c    00000038     drivers_cc26xxware.aem3 : UARTCC26XX.oem3 (.text:writeData)
                  00005054    00000038     rom_sysbios.aem3 : rom_sysbios.obj (.text:xdc_runtime_SysMin_putch__E)
                  0000508c    00000036     drivers_cc26xxware.aem3 : UDMACC26XX.oem3 (.text:UDMACC26XX_close)
                  000050c2    00000002     protocol_pem3.oem3 (.text:ti_sysbios_rom_cortexm_cc26xx_CC26xx_badRomRevision__E)
                  000050c4    00000034     driverlib.lib : aux_adc.obj (.text:NOROM_AUXADCDisableInputScaling)
                  000050f8    00000034                   : osc.obj (.text:NOROM_OSCHF_SwitchToRcOscTurnOffXosc)
                  0000512c    00000034     drivers_cc26xxware.aem3 : PINCC26XX.oem3 (.text:PIN_setConfig)
                  00005160    00000034     rom_sysbios.aem3 : rom_sysbios.obj (.text:ti_sysbios_family_arm_cc26xx_Timer_initDevice__I)
                  00005194    00000032     ext_flash.obj (.text:extFlashWaitPowerDown)
                  000051c6    00000032     rom_sysbios.aem3 : rom_sysbios.obj (.text:ti_sysbios_family_arm_cc26xx_Timer_setNextTick__E)
                  000051f8    00000030     driverlib.lib : setup.obj (.text:NOROM_SetupSetAonRtcSubSecInc)
                  00005228    00000030     drivers_cc26xxware.aem3 : PowerCC26XX.oem3 (.text:Power_releaseConstraint)
                  00005258    00000030                             : PowerCC26XX.oem3 (.text:Power_setConstraint)
                  00005288    00000030                             : SPI.oem3 (.text:SPI_open)
                  000052b8    00000030     driverlib.lib : adi.obj (.text:SafeHapiAuxAdiSelect)
                  000052e8    00000030     ext_flash.obj (.text:extFlashWriteEnable)
                  00005318    00000030     store_log.obj (.text:spi_clear_everything)
                  00005348    00000030     protocol_pem3.oem3 (.text:ti_sysbios_BIOS_atExitFunc__I)
                  00005378    00000030     protocol_pem3.oem3 (.text:ti_sysbios_BIOS_startFunc__I)
                  000053a8    00000030     rom_sysbios.aem3 : rom_sysbios.obj (.text:ti_sysbios_family_arm_cc26xx_Timer_setThreshold__I)
                  000053d8    00000030                      : rom_sysbios.obj (.text:xdc_runtime_SysMin_abort__E)
                  00005408    0000002e     ext_flash.obj (.text:extFlashPowerDown)
                  00005436    00000002     rom_sysbios.aem3 : rom_sysbios.obj (.text:xdc_runtime_SysCallback_defaultAbort)
                  00005438    0000002c     driverlib.lib : ddi.obj (.text:NOROM_DDI32RegWrite)
                  00005464    0000002c                   : setup.obj (.text:NOROM_SetupGetTrimForRadcExtCfg)
                  00005490    0000002c     drivers_cc26xxware.aem3 : PINCC26XX.oem3 (.text:PINCC26XX_setMux)
                  000054bc    0000002c     rom_sysbios.aem3 : rom_sysbios_config.obj (.text:ti_sysbios_gates_GateHwi_construct)
                  000054e8    0000002c                      : rom_sysbios.obj (.text:ti_sysbios_knl_Clock_getTicksUntilInterrupt__E)
                  00005514    00000028     driverlib.lib : aon_batmon.obj (.text:NOROM_AONBatMonTemperatureGetDegC)
                  0000553c    00000028     drivers_cc26xxware.aem3 : PowerCC26XX.oem3 (.text:Power_registerNotify)
                  00005564    00000028                             : SPICC26XXDMA.oem3 (.text:SPICC26XXDMA_flushFifos)
                  0000558c    00000028     driverlib.lib : adi.obj (.text:SafeHapiVoid)
                  000055b4    00000026     drivers_cc26xxware.aem3 : List.oem3 (.text:List_put)
                  000055da    00000002     rom_sysbios.aem3 : rom_sysbios.obj (.text:xdc_runtime_SysCallback_defaultExit)
                  000055dc    00000024     drivers_cc26xxware.aem3 : PINCC26XX.oem3 (.text:PINCC26XX_getPinCount)
                  00005600    00000024                             : PowerCC26XX_calibrateRCOSC.oem3 (.text:getTdcSemaphore)
                  00005624    00000024     protocol_pem3.oem3 (.text:ti_sysbios_BIOS_registerRTSLock__I)
                  00005648    00000024     protocol_pem3.oem3 (.text:ti_sysbios_BIOS_removeRTSLock__I)
                  0000566c    00000024     rom_sysbios.aem3 : rom_sysbios.obj (.text:ti_sysbios_family_arm_cc26xx_Timer_getMaxTicks__E)
                  00005690    00000022     driverlib.lib : aux_adc.obj (.text:NOROM_AUXADCAdjustValueForGainAndOffset)
                  000056b2    00000022     protocol_pem3.oem3 (.text:xdc_runtime_SysMin_output__I)
                  000056d4    00000020     driverlib.lib : setup.obj (.text:NOROM_SetupGetTrimForXoscHfCtl)
                  000056f4    00000020     drivers_cc26xxware.aem3 : PowerCC26XX.oem3 (.text:Power_unregisterNotify)
                  00005714    00000020     protocol_pem3.oem3 (.text:ti_sysbios_BIOS_rtsLock__I)
                  00005734    00000020     rom_sysbios.aem3 : rom_sysbios.obj (.text:ti_sysbios_family_arm_cc26xx_Timer_dynamicStub__E)
                  00005754    00000020                      : rom_sysbios.obj (.text:ti_sysbios_knl_Clock_stop__E)
                  00005774    00000020                      : rom_sysbios.obj (.text:xdc_runtime_SysMin_Module_startup__E)
                  00005794    0000001e     drivers_cc26xxware.aem3 : PINCC26XX.oem3 (.text:PIN_close)
                  000057b2    0000001e                             : PowerCC26XX.oem3 (.text:Power_getTransitionLatency)
                  000057d0    0000001e     bsp_spi.obj (.text:SSIBusy)
                  000057ee    00000002     --HOLE-- [fill = 0]
                  000057f0    0000001c     driverlib.lib : aux_adc.obj (.text:NOROM_AUXADCGetAdjustmentGain)
                  0000580c    0000001c                   : osc.obj (.text:NOROM_OSCClockSourceGet)
                  00005828    0000001c                   : setup.obj (.text:NOROM_SetupGetTrimForAmpcompTh2)
                  00005844    0000001c                   : setup.obj (.text:NOROM_SetupGetTrimForRcOscLfRtuneCtuneTrim)
                  00005860    0000001c     drivers_cc26xxware.aem3 : PINCC26XX.oem3 (.text:PINCC26XX_setIoCfgMux)
                  0000587c    0000001c                             : PINCC26XX.oem3 (.text:PIN_hwi)
                  00005898    0000001c                             : UDMACC26XX.oem3 (.text:UDMACC26XX_initHw)
                  000058b4    0000001c     main.obj (.text:set_pin)
                  000058d0    0000001c     rom_sysbios.aem3 : rom_sysbios.obj (.text:xdc_runtime_SysMin_exit__E)
                  000058ec    0000001a     drivers_cc26xxware.aem3 : List.oem3 (.text:List_remove)
                  00005906    00000002     --HOLE-- [fill = 0]
                  00005908    00000018     driverlib.lib : aon_rtc.obj (.text:NOROM_AONRTCCurrentCompareValueGet)
                  00005920    00000018                   : aux_adc.obj (.text:NOROM_AUXADCGetAdjustmentOffset)
                  00005938    00000018                   : chipinfo.obj (.text:NOROM_ChipInfo_GetPackageType)
                  00005950    00000018                   : osc.obj (.text:NOROM_OSCHF_TurnOnXosc)
                  00005968    00000018                   : setup.obj (.text:NOROM_SetupGetTrimForAdcShModeEn)
                  00005980    00000018                   : setup.obj (.text:NOROM_SetupGetTrimForAdcShVbufEn)
                  00005998    00000018                   : setup.obj (.text:NOROM_SetupGetTrimForAmpcompTh1)
                  000059b0    00000018                   : setup.obj (.text:NOROM_SetupGetTrimForDblrLoopFilterResetVoltage)
                  000059c8    00000018                   : setup.obj (.text:NOROM_SetupGetTrimForRcOscLfIBiasTrim)
                  000059e0    00000018                   : setup.obj (.text:NOROM_SetupGetTrimForXoscLfRegulatorAndCmirrwrRatio)
                  000059f8    00000018     drivers_cc26xxware.aem3 : PINCC26XX.oem3 (.text:PIN_getConfig)
                  00005a10    00000018                             : PowerCC26XX.oem3 (.text:Power_idleFunc)
                  00005a28    00000018                             : UARTCC26XX.oem3 (.text:UARTCC26XX_init)
                  00005a40    00000018     bsp_spi.obj (.text:bspSpiFlush)
                  00005a58    00000018     drivers_cc26xxware.aem3 : PowerCC26XX.oem3 (.text:configureRFCoreClocks)
                  00005a70    00000018     rtsv7M3_T_le_eabi.lib : args_main.obj (.text)
                  00005a88    00000018                           : ll_mul_t2.obj (.text)
                  00005aa0    00000018     main.obj (.text:start_receive)
                  00005ab8    00000018     protocol_pem3.oem3 (.text:ti_sysbios_BIOS_rtsUnlock__I)
                  00005ad0    00000018     rom_sysbios.aem3 : rom_sysbios.obj (.text:ti_sysbios_knl_Swi_or__E)
                  00005ae8    00000018     protocol_pem3.oem3 (.text:ti_sysbios_rom_cortexm_cc26xx_CC26xx_checkRevision__E)
                  00005b00    00000016     rtsv7M3_T_le_eabi.lib : strcpy.obj (.text)
                  00005b16    00000016     protocol_pem3.oem3 (.text:ti_sysbios_BIOS_exitFunc__I)
                  00005b2c    00000016     main.obj (.text:ti_sysbios_knl_Clock_Params_init)
                  00005b42    00000016     main.obj (.text:ti_sysbios_knl_Task_Params_init)
                  00005b58    00000014     driverlib.lib : aon_rtc.obj (.text:NOROM_AONRTCCurrent64BitValueGet)
                  00005b6c    00000014                   : aux_adc.obj (.text:NOROM_AUXADCValueToMicrovolts)
                  00005b80    00000014                   : chipinfo.obj (.text:NOROM_ThisCodeIsBuiltForCC26xxHwRev22AndLater_HaltIfViolated)
                  00005b94    00000014     drivers_cc26xxware.aem3 : PINCC26XX.oem3 (.text:PINCC26XX_getOutputValue)
                  00005ba8    00000014                             : SPI.oem3 (.text:SPI_Params_init)
                  00005bbc    00000014     ext_flash.obj (.text:extFlashDeselect)
                  00005bd0    00000014     ext_flash.obj (.text:extFlashSelect)
                  00005be4    00000014     rtsv7M3_T_le_eabi.lib : _lock.obj (.text)
                  00005bf8    00000014                           : strlen.obj (.text)
                  00005c0c    00000014     protocol_pem3.oem3 (.text:ti_sysbios_knl_Clock_doTick__I)
                  00005c20    00000012     rom_sysbios.aem3 : rom_sysbios.obj (.text:ti_sysbios_knl_Semaphore_reset__E)
                  00005c32    00000012     protocol_pem3.oem3 (.text:xdc_runtime_Startup_exec__I)
                  00005c44    00000010     driverlib.lib : aux_adc.obj (.text:NOROM_AUXADCFlushFifo)
                  00005c54    00000010                   : aux_adc.obj (.text:NOROM_AUXADCReadFifo)
                  00005c64    00000010                   : setup.obj (.text:NOROM_SetupGetTrimForXoscHfFastStart)
                  00005c74    00000010                   : setup.obj (.text:NOROM_SetupGetTrimForXoscHfIbiastherm)
                  00005c84    00000010     main.obj (.text:get_pin)
                  00005c94    00000010     drivers_cc26xxware.aem3 : I2CCC26XX.oem3 (.text:i2cPostNotify)
                  00005ca4    00000010                             : UARTCC26XX.oem3 (.text:uartPostNotify)
                  00005cb4    0000000e     driverlib.lib : setup.obj (.text:NOROM_SetupSignExtendVddrTrimValue)
                  00005cc2    0000000e                   : vims.obj (.text:NOROM_VIMSModeGet)
                  00005cd0    0000000e     drivers_cc26xxware.aem3 : SPICC26XXDMA.oem3 (.text:SPICC26XXDMA_init)
                  00005cde    0000000e     rtsv7M3_T_le_eabi.lib : copy_decompress_none.obj (.text:decompress:none)
                  00005cec    0000000e     rom_sysbios.aem3 : rom_sysbios.obj (.text:ti_sysbios_family_arm_cc26xx_TimestampProvider_get32__E)
                  00005cfa    0000000c     driverlib.lib : cpu.obj (.text:NOROM_CPUcpsid)
                  00005d06    0000000c                   : cpu.obj (.text:NOROM_CPUcpsie)
                  00005d12    0000000c     drivers_cc26xxware.aem3 : PINCC26XX.oem3 (.text:PIN_registerIntCb)
                  00005d1e    00000002     --HOLE-- [fill = 0]
                  00005d20    0000000c                             : PowerCC26XX.oem3 (.text:Power_getConstraintMask)
                  00005d2c    0000000c                             : PowerCC26XX.oem3 (.text:Power_getDependencyCount)
                  00005d38    0000000c     rtsv7M3_T_le_eabi.lib : copy_zero_init.obj (.text:decompress:ZI)
                  00005d44    0000000c     receive_fxn.obj (.text:receive_fxn)
                  00005d50    0000000c     drivers_cc26xxware.aem3 : SPICC26XXDMA.oem3 (.text:spiPostNotify)
                  00005d5c    0000000c     ext_flash.obj (.text:ti_sysbios_gates_GateHwi_handle)
                  00005d68    0000000c     receive_fxn.obj (.text:ti_sysbios_gates_GateHwi_handle)
                  00005d74    0000000c     time_fxn.obj (.text:ti_sysbios_gates_GateHwi_handle)
                  00005d80    0000000c     main.obj (.text:ti_sysbios_knl_Semaphore_handle)
                  00005d8c    0000000c     time_fxn.obj (.text:ti_sysbios_knl_Semaphore_handle)
                  00005d98    0000000c     rom_sysbios.aem3 : rom_sysbios.obj (.text:ti_sysbios_knl_Swi_getTrigger__E)
                  00005da4    0000000c     protocol_pem3.oem3 (.text:xdc_runtime_Startup_reset__I)
                  00005db0    0000000c     rom_sysbios.aem3 : rom_sysbios.obj (.text:xdc_runtime_Startup_rtsDone__E)
                  00005dbc    0000000a     drivers_cc26xxware.aem3 : I2CCC26XX.oem3 (.text:I2CCC26XX_init)
                  00005dc6    0000000a                             : List.oem3 (.text:List_empty)
                  00005dd0    0000000a                             : SPI.oem3 (.text:SPI_close)
                  00005dda    0000000a                             : SPI.oem3 (.text:SPI_transfer)
                  00005de4    0000000a                             : UART.oem3 (.text:UART_write)
                  00005dee    0000000a                             : UDMACC26XX.oem3 (.text:UDMACC26XX_hwiIntFxn)
                  00005df8    00000008                             : ADCCC26XX.oem3 (.text:ADCCC26XX_init)
                  00005e00    00000008                             : I2CCC26XX.oem3 (.text:I2CCC26XX_blockingCallback)
                  00005e08    00000008                             : SPICC26XXDMA.oem3 (.text:SPICC26XXDMA_transferCallback)
                  00005e10    00000008                             : UARTCC26XX.oem3 (.text:readSemCallback)
                  00005e18    00000008                             : UARTCC26XX.oem3 (.text:writeSemCallback)
                  00005e20    00000006                             : ADCCC26XX.oem3 (.text:ADCCC26XX_control)
                  00005e26    00000006                             : I2CCC26XX.oem3 (.text:I2CCC26XX_control)
                  00005e2c    00000006     driverlib.lib : cpu.obj (.text:NOROM_CPUdelay)
                  00005e32    00000006     drivers_cc26xxware.aem3 : UARTCC26XX.oem3 (.text:UARTCC26XX_readPolling)
                  00005e38    00000006                             : UARTCC26XX.oem3 (.text:UARTCC26XX_writePolling)
                  00005e3e    00000004     tirtosport.aem3 : HwiP_tirtos.oem3 (.text:HwiP_disable)
                  00005e42    00000004     drivers_cc26xxware.aem3 : List.oem3 (.text:List_head)
                  00005e46    00000004                             : List.oem3 (.text:List_next)
                  00005e4a    00000004                             : PowerCC26XX.oem3 (.text:nopResourceHandler)
                  00005e4e    00000004     rom_sysbios.aem3 : rom_sysbios.obj (.text:ti_sysbios_family_arm_cc26xx_Timer_getCount64__E)
                  00005e52    00000002     --HOLE-- [fill = 0]
                  00005e54    00000008     (.tramp.xdc_runtime_Startup_startMods__I.1)
                  00005e5c    00000008     (.tramp.ti_sysbios_knl_Clock_logTick__E.1)
                  00005e64    00000008     (.tramp.ti_sysbios_knl_Task_Params__init__S.1)
                  00005e6c    00000008     (.tramp.ti_sysbios_BIOS_RtsGateProxy_leave__E.1)
                  00005e74    00000008     (.tramp.ti_sysbios_BIOS_RtsGateProxy_enter__E.1)
                  00005e7c    00000008     (.tramp.ti_sysbios_gates_GateHwi_Instance_init__E.1)
                  00005e84    00000008     (.tramp.xdc_runtime_Core_constructObject__I.1)
                  00005e8c    00000008     (.tramp.ti_sysbios_knl_Task_startup__E.1)
                  00005e94    00000008     (.tramp.ti_sysbios_knl_Swi_startup__E.1)
                  00005e9c    00000008     (.tramp.ti_sysbios_hal_Hwi_startup__E.1)
                  00005ea4    00000008     (.tramp.ti_sysbios_family_arm_cc26xx_Timer_startup__E.1)
                  00005eac    00000008     (.tramp.xdc_runtime_System_atexit__E.1)
                  00005eb4    00000008     (.tramp.ti_sysbios_BIOS_setThreadType__E.1)
                  00005ebc    00000008     (.tramp.xdc_runtime_Gate_leaveSystem__E.1)
                  00005ec4    00000008     (.tramp.xdc_runtime_Gate_enterSystem__E.1)
                  00005ecc    00000008     (.tramp.xdc_runtime_System_exit__E.1)
                  00005ed4    00000008     (.tramp.ti_sysbios_knl_Task_exit__E.1)
                  00005edc    00000008     (.tramp.ti_sysbios_knl_Clock_destruct.1)
                  00005ee4    00000008     (.tramp.ti_sysbios_knl_Semaphore_destruct.1)
                  00005eec    00000008     (.tramp.ti_sysbios_knl_Swi_destruct.1)
                  00005ef4    00000008     (.tramp.ti_sysbios_family_arm_m3_Hwi_destruct.1)
                  00005efc    00000008     (.tramp.ti_sysbios_knl_Clock_scheduleNextTick__E.1)
                  00005f04    00000008     (.tramp.ti_sysbios_knl_Clock_walkQueueDynamic__E.1)
                  00005f0c    00000008     (.tramp.ti_sysbios_knl_Clock_TimerProxy_getCurrentTick__E.1)
                  00005f14    00000008     (.tramp.ti_sysbios_knl_Task_sleep__E.1)
                  00005f1c    00000008     (.tramp.ti_sysbios_knl_Semaphore_post__E.1)
                  00005f24    00000008     (.tramp.ti_sysbios_family_arm_m3_Hwi_enableInterrupt__E.1)
                  00005f2c    00000008     (.tramp.ti_sysbios_family_arm_m3_Hwi_disableInterrupt__E.1)
                  00005f34    00000008     (.tramp.ti_sysbios_BIOS_getCpuFreq__E.1)
                  00005f3c    00000008     (.tramp.ti_sysbios_knl_Clock_create.1)
                  00005f44    00000008     (.tramp.ti_sysbios_knl_Task_construct.1)
                  00005f4c    00000008     (.tramp.ti_sysbios_gates_GateHwi_leave__E.1)
                  00005f54    00000008     (.tramp.ti_sysbios_gates_GateHwi_enter__E.1)
                  00005f5c    00000008     (.tramp.ti_sysbios_knl_Swi_post__E.1)
                  00005f64    00000008     (.tramp.ti_sysbios_BIOS_start__E.1)
                  00005f6c    00000008     (.tramp.xdc_runtime_System_abort__E.1)
                  00005f74    00000008     (.tramp.ti_sysbios_knl_Semaphore_pend__E.1)
                  00005f7c    00000008     (.tramp.ti_sysbios_knl_Clock_setTimeout__E.1)
                  00005f84    00000008     (.tramp.ti_sysbios_knl_Clock_start__E.1)
                  00005f8c    00000008     (.tramp.xdc_runtime_System_abortSpin__E.1)
                  00005f94    00000008     (.tramp.ti_sysbios_knl_Clock_construct.1)
                  00005f9c    00000008     (.tramp.ti_sysbios_knl_Clock_Params__init__S.1)
                  00005fa4    00000008     (.tramp.ti_sysbios_family_arm_m3_Hwi_restoreFxn__E.1)
                  00005fac    00000008     (.tramp.ti_sysbios_family_arm_m3_Hwi_disableFxn__E.1)
                  00005fb4    00000008     (.tramp.ti_sysbios_knl_Swi_construct.1)
                  00005fbc    00000008     (.tramp.ti_sysbios_knl_Swi_Params__init__S.1)
                  00005fc4    00000008     (.tramp.ti_sysbios_family_arm_m3_Hwi_construct.1)
                  00005fcc    00000008     (.tramp.ti_sysbios_family_arm_m3_Hwi_Params__init__S.1)
                  00005fd4    00000008     (.tramp.ti_sysbios_knl_Semaphore_construct.1)
                  00005fdc    00000008     (.tramp.ti_sysbios_knl_Semaphore_Params__init__S.1)
                  00005fe4    00000008     (.tramp.ti_sysbios_knl_Task_restore__E.1)
                  00005fec    00000008     (.tramp.ti_sysbios_knl_Swi_restore__E.1)
                  00005ff4    00000008     (.tramp.ti_sysbios_knl_Swi_disable__E.1)
                  00005ffc    00000008     (.tramp.ti_sysbios_knl_Task_disable__E.1)

.const     0    00006004    00000375     
                  00006004    00000054     drivers_cc26xxware.aem3 : SPICC26XXDMA.oem3 (.const)
                  00006058    0000004c                             : PowerCC26XX.oem3 (.const:resourceDB)
                  000060a4    00000048     protocol_pem3.oem3 (.const:.string)
                  000060ec    00000040     drivers_cc26xxware.aem3 : UARTCC26XX.oem3 (.const)
                  0000612c    0000003c     CC2650DK_7ID.obj (.const:ADC_config)
                  00006168    00000038     CC2650DK_7ID.obj (.const:spiCC26XXDMAHWAttrs)
                  000061a0    00000028     drivers_cc26xxware.aem3 : UARTCC26XX.oem3 (.const:UARTCC26XX_fxnTable)
                  000061c8    00000028     protocol_pem3.oem3 (.const:xdc_runtime_Startup_sfxnTab__A)
                  000061f0    00000024     CC2650DK_7ID.obj (.const:SPI_config)
                  00006214    00000024     CC2650DK_7ID.obj (.const:adcCC26xxHWAttrs)
                  00006238    00000020     drivers_cc26xxware.aem3 : I2CCC26XX.oem3 (.const)
                  00006258    00000020                             : SPI.oem3 (.const)
                  00006278    0000001c     CC2650DK_7ID.obj (.const:BoardGpioInitTable)
                  00006294    00000018     CC2650DK_7ID.obj (.const:I2C_config)
                  000062ac    00000018     CC2650DK_7ID.obj (.const:UART_config)
                  000062c4    00000018     drivers_cc26xxware.aem3 : ADCCC26XX.oem3 (.const)
                  000062dc    00000018     CC2650DK_7ID.obj (.const:i2cCC26XXHWAttrs)
                  000062f4    00000018     CC2650DK_7ID.obj (.const:uartCC26XXHWAttrs)
                  0000630c    00000014     protocol_pem3.oem3 (.const:xdc_runtime_Startup_sfxnRts__A)
                  00006320    00000010     CC2650DK_7ID.obj (.const:PowerCC26XX_config)
                  00006330    00000010     CC2650DK_7ID.obj (.const:UDMACC26XX_config)
                  00006340    0000000c     protocol_pem3.oem3 (.const:xdc_runtime_Startup_firstFxns__A)
                  0000634c    00000008     CC2650DK_7ID.obj (.const:PINCC26XX_hwAttrs)
                  00006354    00000008     CC2650DK_7ID.obj (.const:udmaHWAttrs)
                  0000635c    00000004     ext_flash.obj (.const:.string:$P$T0$1)
                  00006360    00000004     protocol_pem3.oem3 (.const:ti_sysbios_knl_Clock_tickPeriod__C)
                  00006364    00000004     protocol_pem3.oem3 (.const:ti_sysbios_knl_Clock_triggerClock__C)
                  00006368    00000004     protocol_pem3.oem3 (.const:ti_sysbios_knl_Idle_funcList__A)
                  0000636c    00000004     protocol_pem3.oem3 (.const:xdc_runtime_SysMin_bufSize__C)
                  00006370    00000004     protocol_pem3.oem3 (.const:xdc_runtime_SysMin_outputFunc__C)
                  00006374    00000002     protocol_pem3.oem3 (.const:xdc_runtime_SysMin_flushAtExit__C)
                  00006376    00000001     ext_flash.obj (.const:.string:$P$T1$2)
                  00006377    00000001     ext_flash.obj (.const:.string:$P$T2$3)
                  00006378    00000001     protocol_pem3.oem3 (.const:xdc_runtime_Text_charTab__A)

.cinit     0    00006380    000002c0     
                  00006380    00000136     (.cinit..data.load) [load image, compression = lzss]
                  000064b6    00000028     (.cinit..data:ti_sysbios_family_arm_m3_Hwi_Module__state__V.load) [load image, compression = lzss]
                  000064de    00000021     (.cinit..data:ti_sysbios_knl_Task_Module__state__V.load) [load image, compression = lzss]
                  000064ff    0000001f     (.cinit..data:ti_sysbios_BIOS_Module__state__V.load) [load image, compression = lzss]
                  0000651e    0000001b     (.cinit..data:ti_sysbios_knl_Clock_Module__state__V.load) [load image, compression = lzss]
                  00006539    00000010     (.cinit..data:ti_sysbios_knl_Swi_Module__state__V.load) [load image, compression = lzss]
                  00006549    00000003     --HOLE-- [fill = 0]
                  0000654c    0000000c     (__TI_handler_table)
                  00006558    0000000b     (.cinit..data:ti_sysbios_family_arm_cc26xx_Timer_Module__state__V.load) [load image, compression = lzss]
                  00006563    0000000b     (.cinit..data:xdc_runtime_System_Module__state__V.load) [load image, compression = lzss]
                  0000656e    00000002     --HOLE-- [fill = 0]
                  00006570    00000008     (.cinit..TI.bound:dmaSpi0RxControlTableEntry.load) [load image, compression = zero_init]
                  00006578    00000008     (.cinit..TI.bound:dmaSpi0TxControlTableEntry.load) [load image, compression = zero_init]
                  00006580    00000008     (.cinit..TI.bound:dmaSpi1RxControlTableEntry.load) [load image, compression = zero_init]
                  00006588    00000008     (.cinit..TI.bound:dmaSpi1TxControlTableEntry.load) [load image, compression = zero_init]
                  00006590    00000008     (.cinit..bss.load) [load image, compression = zero_init]
                  00006598    00000008     (.cinit..data:xdc_runtime_Memory_Module__state__V.load) [load image, compression = lzss]
                  000065a0    00000008     (.cinit..vecs.load) [load image, compression = zero_init]
                  000065a8    00000007     (.cinit..data:ti_sysbios_family_arm_cc26xx_TimestampProvider_Module__state__V.load) [load image, compression = lzss]
                  000065af    00000007     (.cinit..data:xdc_runtime_Startup_Module__state__V.load) [load image, compression = lzss]
                  000065b6    00000002     --HOLE-- [fill = 0]
                  000065b8    00000088     (__TI_cinit_table)

.init_array 
*          0    00000000    00000000     UNINITIALIZED

.ccfg      0    0001ffa8    00000058     
                  0001ffa8    00000058     ccfg.obj (.ccfg:retain)

.resetVecs 
*          0    00000000    0000003c     
                  00000000    0000003c     protocol_pem3.oem3 (.resetVecs)

.binit     0    00000000    00000000     

.const:ti_sysbios_knl_Task_Object__PARAMS__C 
*          0    00000100    0000003c     
                  00000100    0000003c     protocol_pem3.oem3 (.const:ti_sysbios_knl_Task_Object__PARAMS__C)

.const:ti_sysbios_knl_Mailbox_Object__PARAMS__C 
*          0    0000013c    00000034     
                  0000013c    00000034     protocol_pem3.oem3 (.const:ti_sysbios_knl_Mailbox_Object__PARAMS__C)

.const:ti_sysbios_family_arm_m3_Hwi_Object__PARAMS__C 
*          0    00000170    00000030     
                  00000170    00000030     protocol_pem3.oem3 (.const:ti_sysbios_family_arm_m3_Hwi_Object__PARAMS__C)

.const:ti_sysbios_hal_Hwi_Object__PARAMS__C 
*          0    000001a0    0000002c     
                  000001a0    0000002c     protocol_pem3.oem3 (.const:ti_sysbios_hal_Hwi_Object__PARAMS__C)

.const:ti_sysbios_heaps_HeapMem_Module__FXNS__C 
*          0    000001cc    00000028     
                  000001cc    00000028     protocol_pem3.oem3 (.const:ti_sysbios_heaps_HeapMem_Module__FXNS__C)

.const:ti_sysbios_knl_Swi_Object__PARAMS__C 
*          0    000001f4    00000028     
                  000001f4    00000028     protocol_pem3.oem3 (.const:ti_sysbios_knl_Swi_Object__PARAMS__C)

.const:ti_sysbios_gates_GateHwi_Module__FXNS__C 
*          0    0000021c    00000024     
                  0000021c    00000024     protocol_pem3.oem3 (.const:ti_sysbios_gates_GateHwi_Module__FXNS__C)

.const:ti_sysbios_gates_GateMutex_Module__FXNS__C 
*          0    00000240    00000024     
                  00000240    00000024     protocol_pem3.oem3 (.const:ti_sysbios_gates_GateMutex_Module__FXNS__C)

.const:ti_sysbios_heaps_HeapMem_Object__PARAMS__C 
*          0    00000264    00000024     
                  00000264    00000024     protocol_pem3.oem3 (.const:ti_sysbios_heaps_HeapMem_Object__PARAMS__C)

.const:ti_sysbios_knl_Clock_Object__PARAMS__C 
*          0    00000288    00000024     
                  00000288    00000024     protocol_pem3.oem3 (.const:ti_sysbios_knl_Clock_Object__PARAMS__C)

.const:ti_sysbios_knl_Semaphore_Object__PARAMS__C 
*          0    000002ac    00000024     
                  000002ac    00000024     protocol_pem3.oem3 (.const:ti_sysbios_knl_Semaphore_Object__PARAMS__C)

.const:ti_sysbios_family_arm_m3_Hwi_Object__DESC__C 
*          0    000002d0    00000020     
                  000002d0    00000020     protocol_pem3.oem3 (.const:ti_sysbios_family_arm_m3_Hwi_Object__DESC__C)

.const:ti_sysbios_gates_GateHwi_Object__DESC__C 
*          0    000002f0    00000020     
                  000002f0    00000020     protocol_pem3.oem3 (.const:ti_sysbios_gates_GateHwi_Object__DESC__C)

.const:ti_sysbios_gates_GateMutex_Object__DESC__C 
*          0    00000310    00000020     
                  00000310    00000020     protocol_pem3.oem3 (.const:ti_sysbios_gates_GateMutex_Object__DESC__C)

.const:ti_sysbios_hal_Hwi_Object__DESC__C 
*          0    00000330    00000020     
                  00000330    00000020     protocol_pem3.oem3 (.const:ti_sysbios_hal_Hwi_Object__DESC__C)

.const:ti_sysbios_heaps_HeapMem_Object__DESC__C 
*          0    00000350    00000020     
                  00000350    00000020     protocol_pem3.oem3 (.const:ti_sysbios_heaps_HeapMem_Object__DESC__C)

.const:ti_sysbios_knl_Clock_Object__DESC__C 
*          0    00000370    00000020     
                  00000370    00000020     protocol_pem3.oem3 (.const:ti_sysbios_knl_Clock_Object__DESC__C)

.const:ti_sysbios_knl_Mailbox_Object__DESC__C 
*          0    00000390    00000020     
                  00000390    00000020     protocol_pem3.oem3 (.const:ti_sysbios_knl_Mailbox_Object__DESC__C)

.const:ti_sysbios_knl_Queue_Object__DESC__C 
*          0    000003b0    00000020     
                  000003b0    00000020     protocol_pem3.oem3 (.const:ti_sysbios_knl_Queue_Object__DESC__C)

.const:ti_sysbios_knl_Semaphore_Object__DESC__C 
*          0    000003d0    00000020     
                  000003d0    00000020     protocol_pem3.oem3 (.const:ti_sysbios_knl_Semaphore_Object__DESC__C)

.const:ti_sysbios_knl_Swi_Object__DESC__C 
*          0    000003f0    00000020     
                  000003f0    00000020     protocol_pem3.oem3 (.const:ti_sysbios_knl_Swi_Object__DESC__C)

.const:ti_sysbios_knl_Task_Object__DESC__C 
*          0    00000410    00000020     
                  00000410    00000020     protocol_pem3.oem3 (.const:ti_sysbios_knl_Task_Object__DESC__C)

.const:ti_sysbios_gates_GateHwi_Object__PARAMS__C 
*          0    00000430    00000018     
                  00000430    00000018     protocol_pem3.oem3 (.const:ti_sysbios_gates_GateHwi_Object__PARAMS__C)

.const:ti_sysbios_gates_GateMutex_Object__PARAMS__C 
*          0    00000448    00000018     
                  00000448    00000018     protocol_pem3.oem3 (.const:ti_sysbios_gates_GateMutex_Object__PARAMS__C)

.const:ti_sysbios_knl_Queue_Object__PARAMS__C 
*          0    00000460    00000018     
                  00000460    00000018     protocol_pem3.oem3 (.const:ti_sysbios_knl_Queue_Object__PARAMS__C)

.const:ti_sysbios_knl_Idle_funcList__C 
*          0    00000478    00000008     
                  00000478    00000008     protocol_pem3.oem3 (.const:ti_sysbios_knl_Idle_funcList__C)

.const:ti_sysbios_family_arm_cc26xx_Timer_startupNeeded__C 
*          0    00000484    00000004     
                  00000484    00000004     protocol_pem3.oem3 (.const:ti_sysbios_family_arm_cc26xx_Timer_startupNeeded__C)

.const:ti_sysbios_family_arm_m3_Hwi_E_alreadyDefined__C 
*          0    00000488    00000004     
                  00000488    00000004     protocol_pem3.oem3 (.const:ti_sysbios_family_arm_m3_Hwi_E_alreadyDefined__C)

.const:ti_sysbios_family_arm_m3_Hwi_E_hwiLimitExceeded__C 
*          0    0000048c    00000004     
                  0000048c    00000004     protocol_pem3.oem3 (.const:ti_sysbios_family_arm_m3_Hwi_E_hwiLimitExceeded__C)

.const:ti_sysbios_family_arm_m3_Hwi_NUM_INTERRUPTS__C 
*          0    00000490    00000004     
                  00000490    00000004     protocol_pem3.oem3 (.const:ti_sysbios_family_arm_m3_Hwi_NUM_INTERRUPTS__C)

.const:ti_sysbios_family_arm_m3_Hwi_Object__count__C 
*          0    00000494    00000004     
                  00000494    00000004     protocol_pem3.oem3 (.const:ti_sysbios_family_arm_m3_Hwi_Object__count__C)

.const:ti_sysbios_family_arm_m3_Hwi_Object__table__C 
*          0    00000498    00000004     
                  00000498    00000004     protocol_pem3.oem3 (.const:ti_sysbios_family_arm_m3_Hwi_Object__table__C)

.const:ti_sysbios_family_arm_m3_Hwi_ccr__C 
*          0    0000049c    00000004     
                  0000049c    00000004     protocol_pem3.oem3 (.const:ti_sysbios_family_arm_m3_Hwi_ccr__C)

.const:ti_sysbios_family_arm_m3_Hwi_excHandlerFunc__C 
*          0    000004a0    00000004     
                  000004a0    00000004     protocol_pem3.oem3 (.const:ti_sysbios_family_arm_m3_Hwi_excHandlerFunc__C)

.const:ti_sysbios_family_arm_m3_Hwi_nullIsrFunc__C 
*          0    000004a4    00000004     
                  000004a4    00000004     protocol_pem3.oem3 (.const:ti_sysbios_family_arm_m3_Hwi_nullIsrFunc__C)

.const:ti_sysbios_family_arm_m3_Hwi_numSparseInterrupts__C 
*          0    000004a8    00000004     
                  000004a8    00000004     protocol_pem3.oem3 (.const:ti_sysbios_family_arm_m3_Hwi_numSparseInterrupts__C)

.const:ti_sysbios_family_arm_m3_Hwi_priGroup__C 
*          0    000004ac    00000004     
                  000004ac    00000004     protocol_pem3.oem3 (.const:ti_sysbios_family_arm_m3_Hwi_priGroup__C)

.const:ti_sysbios_family_arm_m3_TaskSupport_stackAlignment__C 
*          0    000004b0    00000004     
                  000004b0    00000004     protocol_pem3.oem3 (.const:ti_sysbios_family_arm_m3_TaskSupport_stackAlignment__C)

.const:ti_sysbios_heaps_HeapMem_E_memory__C 
*          0    000004b4    00000004     
                  000004b4    00000004     protocol_pem3.oem3 (.const:ti_sysbios_heaps_HeapMem_E_memory__C)

.const:ti_sysbios_heaps_HeapMem_Module__gateObj__C 
*          0    000004b8    00000004     
                  000004b8    00000004     protocol_pem3.oem3 (.const:ti_sysbios_heaps_HeapMem_Module__gateObj__C)

.const:ti_sysbios_heaps_HeapMem_Object__count__C 
*          0    000004bc    00000004     
                  000004bc    00000004     protocol_pem3.oem3 (.const:ti_sysbios_heaps_HeapMem_Object__count__C)

.const:ti_sysbios_heaps_HeapMem_Object__table__C 
*          0    000004c0    00000004     
                  000004c0    00000004     protocol_pem3.oem3 (.const:ti_sysbios_heaps_HeapMem_Object__table__C)

.const:ti_sysbios_heaps_HeapMem_reqAlign__C 
*          0    000004c4    00000004     
                  000004c4    00000004     protocol_pem3.oem3 (.const:ti_sysbios_heaps_HeapMem_reqAlign__C)

.const:ti_sysbios_knl_Clock_serviceMargin__C 
*          0    000004c8    00000004     
                  000004c8    00000004     protocol_pem3.oem3 (.const:ti_sysbios_knl_Clock_serviceMargin__C)

.const:ti_sysbios_knl_Mailbox_Object__count__C 
*          0    000004cc    00000004     
                  000004cc    00000004     protocol_pem3.oem3 (.const:ti_sysbios_knl_Mailbox_Object__count__C)

.const:ti_sysbios_knl_Mailbox_Object__table__C 
*          0    000004d0    00000004     
                  000004d0    00000004     protocol_pem3.oem3 (.const:ti_sysbios_knl_Mailbox_Object__table__C)

.const:ti_sysbios_knl_Queue_Object__count__C 
*          0    000004d4    00000004     
                  000004d4    00000004     protocol_pem3.oem3 (.const:ti_sysbios_knl_Queue_Object__count__C)

.const:ti_sysbios_knl_Queue_Object__table__C 
*          0    000004d8    00000004     
                  000004d8    00000004     protocol_pem3.oem3 (.const:ti_sysbios_knl_Queue_Object__table__C)

.const:ti_sysbios_knl_Swi_Object__count__C 
*          0    000004dc    00000004     
                  000004dc    00000004     protocol_pem3.oem3 (.const:ti_sysbios_knl_Swi_Object__count__C)

.const:ti_sysbios_knl_Swi_Object__table__C 
*          0    000004e0    00000004     
                  000004e0    00000004     protocol_pem3.oem3 (.const:ti_sysbios_knl_Swi_Object__table__C)

.const:ti_sysbios_knl_Swi_numPriorities__C 
*          0    000004e4    00000004     
                  000004e4    00000004     protocol_pem3.oem3 (.const:ti_sysbios_knl_Swi_numPriorities__C)

.const:ti_sysbios_knl_Task_Object__count__C 
*          0    000004e8    00000004     
                  000004e8    00000004     protocol_pem3.oem3 (.const:ti_sysbios_knl_Task_Object__count__C)

.const:ti_sysbios_knl_Task_Object__table__C 
*          0    000004ec    00000004     
                  000004ec    00000004     protocol_pem3.oem3 (.const:ti_sysbios_knl_Task_Object__table__C)

.const:ti_sysbios_knl_Task_allBlockedFunc__C 
*          0    000004f0    00000004     
                  000004f0    00000004     protocol_pem3.oem3 (.const:ti_sysbios_knl_Task_allBlockedFunc__C)

.const:ti_sysbios_knl_Task_defaultStackHeap__C 
*          0    000004f4    00000004     
                  000004f4    00000004     protocol_pem3.oem3 (.const:ti_sysbios_knl_Task_defaultStackHeap__C)

.const:ti_sysbios_knl_Task_defaultStackSize__C 
*          0    000004f8    00000004     
                  000004f8    00000004     protocol_pem3.oem3 (.const:ti_sysbios_knl_Task_defaultStackSize__C)

.const:ti_sysbios_knl_Task_numConstructedTasks__C 
*          0    000004fc    00000004     
                  000004fc    00000004     protocol_pem3.oem3 (.const:ti_sysbios_knl_Task_numConstructedTasks__C)

.const:ti_sysbios_family_arm_cc26xx_Timer_Module__id__C 
*          0    00000502    00000002     
                  00000502    00000002     protocol_pem3.oem3 (.const:ti_sysbios_family_arm_cc26xx_Timer_Module__id__C)

.const:ti_sysbios_family_arm_cc26xx_TimestampProvider_useClockTimer__C 
*          0    00000504    00000002     
                  00000504    00000002     protocol_pem3.oem3 (.const:ti_sysbios_family_arm_cc26xx_TimestampProvider_useClockTimer__C)

.const:ti_sysbios_family_arm_m3_Hwi_Module__id__C 
*          0    00000506    00000002     
                  00000506    00000002     protocol_pem3.oem3 (.const:ti_sysbios_family_arm_m3_Hwi_Module__id__C)

.const:ti_sysbios_gates_GateHwi_Module__id__C 
*          0    00000508    00000002     
                  00000508    00000002     protocol_pem3.oem3 (.const:ti_sysbios_gates_GateHwi_Module__id__C)

.const:ti_sysbios_gates_GateMutex_Module__id__C 
*          0    0000050a    00000002     
                  0000050a    00000002     protocol_pem3.oem3 (.const:ti_sysbios_gates_GateMutex_Module__id__C)

.const:ti_sysbios_heaps_HeapMem_Module__id__C 
*          0    0000050c    00000002     
                  0000050c    00000002     protocol_pem3.oem3 (.const:ti_sysbios_heaps_HeapMem_Module__id__C)

.const:ti_sysbios_knl_Task_initStackFlag__C 
*          0    0000050e    00000002     
                  0000050e    00000002     protocol_pem3.oem3 (.const:ti_sysbios_knl_Task_initStackFlag__C)

.const:ti_sysbios_knl_Clock_tickMode__C 
*          0    00000510    00000001     
                  00000510    00000001     protocol_pem3.oem3 (.const:ti_sysbios_knl_Clock_tickMode__C)

.const:xdc_runtime_Startup_firstFxns__C 
*          0    00000514    00000008     
                  00000514    00000008     protocol_pem3.oem3 (.const:xdc_runtime_Startup_firstFxns__C)

.const:xdc_runtime_Startup_lastFxns__C 
*          0    0000051c    00000008     
                  0000051c    00000008     protocol_pem3.oem3 (.const:xdc_runtime_Startup_lastFxns__C)

.const:xdc_runtime_Assert_E_assertFailed__C 
*          0    00000524    00000004     
                  00000524    00000004     protocol_pem3.oem3 (.const:xdc_runtime_Assert_E_assertFailed__C)

.const:xdc_runtime_Error_E_memory__C 
*          0    00000528    00000004     
                  00000528    00000004     protocol_pem3.oem3 (.const:xdc_runtime_Error_E_memory__C)

.const:xdc_runtime_Error_policyFxn__C 
*          0    0000052c    00000004     
                  0000052c    00000004     protocol_pem3.oem3 (.const:xdc_runtime_Error_policyFxn__C)

.const:xdc_runtime_IGateProvider_Interface__BASE__C 
*          0    00000530    00000004     
                  00000530    00000004     protocol_pem3.oem3 (.const:xdc_runtime_IGateProvider_Interface__BASE__C)

.const:xdc_runtime_IHeap_Interface__BASE__C 
*          0    00000534    00000004     
                  00000534    00000004     protocol_pem3.oem3 (.const:xdc_runtime_IHeap_Interface__BASE__C)

.const:xdc_runtime_IModule_Interface__BASE__C 
*          0    00000538    00000004     
                  00000538    00000004     protocol_pem3.oem3 (.const:xdc_runtime_IModule_Interface__BASE__C)

.const:xdc_runtime_Main_Module__diagsEnabled__C 
*          0    0000053c    00000004     
                  0000053c    00000004     protocol_pem3.oem3 (.const:xdc_runtime_Main_Module__diagsEnabled__C)

.const:xdc_runtime_Main_Module__diagsIncluded__C 
*          0    00000540    00000004     
                  00000540    00000004     protocol_pem3.oem3 (.const:xdc_runtime_Main_Module__diagsIncluded__C)

.const:xdc_runtime_Main_Module__diagsMask__C 
*          0    00000544    00000004     
                  00000544    00000004     protocol_pem3.oem3 (.const:xdc_runtime_Main_Module__diagsMask__C)

.const:xdc_runtime_Memory_defaultHeapInstance__C 
*          0    00000548    00000004     
                  00000548    00000004     protocol_pem3.oem3 (.const:xdc_runtime_Memory_defaultHeapInstance__C)

.const:xdc_runtime_Startup_execImpl__C 
*          0    0000054c    00000004     
                  0000054c    00000004     protocol_pem3.oem3 (.const:xdc_runtime_Startup_execImpl__C)

.const:xdc_runtime_Startup_maxPasses__C 
*          0    00000550    00000004     
                  00000550    00000004     protocol_pem3.oem3 (.const:xdc_runtime_Startup_maxPasses__C)

.const:xdc_runtime_Startup_sfxnRts__C 
*          0    00000554    00000004     
                  00000554    00000004     protocol_pem3.oem3 (.const:xdc_runtime_Startup_sfxnRts__C)

.const:xdc_runtime_Startup_sfxnTab__C 
*          0    00000558    00000004     
                  00000558    00000004     protocol_pem3.oem3 (.const:xdc_runtime_Startup_sfxnTab__C)

.const:xdc_runtime_Startup_startModsFxn__C 
*          0    0000055c    00000004     
                  0000055c    00000004     protocol_pem3.oem3 (.const:xdc_runtime_Startup_startModsFxn__C)

.const:xdc_runtime_SysCallback_abortFxn__C 
*          0    00000560    00000004     
                  00000560    00000004     protocol_pem3.oem3 (.const:xdc_runtime_SysCallback_abortFxn__C)

.const:xdc_runtime_SysCallback_exitFxn__C 
*          0    00000564    00000004     
                  00000564    00000004     protocol_pem3.oem3 (.const:xdc_runtime_SysCallback_exitFxn__C)

.const:xdc_runtime_System_abortFxn__C 
*          0    00000568    00000004     
                  00000568    00000004     protocol_pem3.oem3 (.const:xdc_runtime_System_abortFxn__C)

.const:xdc_runtime_System_exitFxn__C 
*          0    0000056c    00000004     
                  0000056c    00000004     protocol_pem3.oem3 (.const:xdc_runtime_System_exitFxn__C)

.const:xdc_runtime_System_maxAtexitHandlers__C 
*          0    00000570    00000004     
                  00000570    00000004     protocol_pem3.oem3 (.const:xdc_runtime_System_maxAtexitHandlers__C)

.const:xdc_runtime_Text_charTab__C 
*          0    00000574    00000004     
                  00000574    00000004     protocol_pem3.oem3 (.const:xdc_runtime_Text_charTab__C)

.const:xdc_runtime_Text_nameEmpty__C 
*          0    00000578    00000004     
                  00000578    00000004     protocol_pem3.oem3 (.const:xdc_runtime_Text_nameEmpty__C)

.const:xdc_runtime_Text_nameStatic__C 
*          0    0000057c    00000004     
                  0000057c    00000004     protocol_pem3.oem3 (.const:xdc_runtime_Text_nameStatic__C)

.const:xdc_runtime_Text_nameUnknown__C 
*          0    00000580    00000004     
                  00000580    00000004     protocol_pem3.oem3 (.const:xdc_runtime_Text_nameUnknown__C)

.const:xdc_runtime_Main_Module__id__C 
*          0    00000584    00000002     
                  00000584    00000002     protocol_pem3.oem3 (.const:xdc_runtime_Main_Module__id__C)

.const:xdc_runtime_Memory_Module__id__C 
*          0    00000586    00000002     
                  00000586    00000002     protocol_pem3.oem3 (.const:xdc_runtime_Memory_Module__id__C)

.const:xdc_runtime_Text_charCnt__C 
*          0    00000588    00000002     
                  00000588    00000002     protocol_pem3.oem3 (.const:xdc_runtime_Text_charCnt__C)

.const:xdc_runtime_Text_isLoaded__C 
*          0    0000058a    00000002     
                  0000058a    00000002     protocol_pem3.oem3 (.const:xdc_runtime_Text_isLoaded__C)

.const:xdc_runtime_Error_policy__C 
*          0    0000058c    00000001     
                  0000058c    00000001     protocol_pem3.oem3 (.const:xdc_runtime_Error_policy__C)

.const:ti_sysbios_rom_ROM_AONRTCChannelEnable 
*          0    00000590    00000004     
                  00000590    00000004     protocol_pem3.oem3 (.const:ti_sysbios_rom_ROM_AONRTCChannelEnable)

.const:ti_sysbios_rom_ROM_AONRTCCompareValueSet 
*          0    00000594    00000004     
                  00000594    00000004     protocol_pem3.oem3 (.const:ti_sysbios_rom_ROM_AONRTCCompareValueSet)

.const:ti_sysbios_rom_ROM_AONRTCCurrentCompareValueGet 
*          0    00000598    00000004     
                  00000598    00000004     protocol_pem3.oem3 (.const:ti_sysbios_rom_ROM_AONRTCCurrentCompareValueGet)

.const:ti_sysbios_rom_ROM_AONRTCEventClear 
*          0    0000059c    00000004     
                  0000059c    00000004     protocol_pem3.oem3 (.const:ti_sysbios_rom_ROM_AONRTCEventClear)

.const:ti_sysbios_rom_ROM_ti_sysbios_family_arm_cc26xx_Timer_getCount64__E 
*          0    000005a0    00000004     
                  000005a0    00000004     protocol_pem3.oem3 (.const:ti_sysbios_rom_ROM_ti_sysbios_family_arm_cc26xx_Timer_getCount64__E)

.const:ti_sysbios_rom_ROM_ti_sysbios_family_arm_cc26xx_Timer_getCurrentTick__E 
*          0    000005a4    00000004     
                  000005a4    00000004     protocol_pem3.oem3 (.const:ti_sysbios_rom_ROM_ti_sysbios_family_arm_cc26xx_Timer_getCurrentTick__E)

.const:ti_sysbios_rom_ROM_ti_sysbios_family_arm_cc26xx_Timer_getMaxTicks__E 
*          0    000005a8    00000004     
                  000005a8    00000004     protocol_pem3.oem3 (.const:ti_sysbios_rom_ROM_ti_sysbios_family_arm_cc26xx_Timer_getMaxTicks__E)

.const:ti_sysbios_rom_ROM_ti_sysbios_family_arm_cc26xx_Timer_initDevice__I 
*          0    000005ac    00000004     
                  000005ac    00000004     protocol_pem3.oem3 (.const:ti_sysbios_rom_ROM_ti_sysbios_family_arm_cc26xx_Timer_initDevice__I)

.const:ti_sysbios_rom_ROM_ti_sysbios_family_arm_cc26xx_Timer_setNextTick__E 
*          0    000005b0    00000004     
                  000005b0    00000004     protocol_pem3.oem3 (.const:ti_sysbios_rom_ROM_ti_sysbios_family_arm_cc26xx_Timer_setNextTick__E)

.const:ti_sysbios_rom_ROM_ti_sysbios_family_arm_cc26xx_Timer_setThreshold__I 
*          0    000005b4    00000004     
                  000005b4    00000004     protocol_pem3.oem3 (.const:ti_sysbios_rom_ROM_ti_sysbios_family_arm_cc26xx_Timer_setThreshold__I)

.const:ti_sysbios_rom_ROM_ti_sysbios_family_arm_cc26xx_Timer_start__E 
*          0    000005b8    00000004     
                  000005b8    00000004     protocol_pem3.oem3 (.const:ti_sysbios_rom_ROM_ti_sysbios_family_arm_cc26xx_Timer_start__E)

.const:ti_sysbios_rom_ROM_ti_sysbios_family_arm_cc26xx_TimestampProvider_get32__E 
*          0    000005bc    00000004     
                  000005bc    00000004     protocol_pem3.oem3 (.const:ti_sysbios_rom_ROM_ti_sysbios_family_arm_cc26xx_TimestampProvider_get32__E)

.const:ti_sysbios_rom_ROM_xdc_runtime_Startup_getState__I 
*          0    000005c0    00000004     
                  000005c0    00000004     protocol_pem3.oem3 (.const:ti_sysbios_rom_ROM_xdc_runtime_Startup_getState__I)

.const:ti_sysbios_rom_ROM_xdc_runtime_System_SupportProxy_abort__E 
*          0    000005c4    00000004     
                  000005c4    00000004     protocol_pem3.oem3 (.const:ti_sysbios_rom_ROM_xdc_runtime_System_SupportProxy_abort__E)

.const:ti_sysbios_rom_ROM_xdc_runtime_System_SupportProxy_exit__E 
*          0    000005c8    00000004     
                  000005c8    00000004     protocol_pem3.oem3 (.const:ti_sysbios_rom_ROM_xdc_runtime_System_SupportProxy_exit__E)

.const:ti_sysbios_gates_GateMutex_Instance_State_sem__O 
*          0    000005cc    00000004     
                  000005cc    00000004     protocol_pem3.oem3 (.const:ti_sysbios_gates_GateMutex_Instance_State_sem__O)

.const:ti_sysbios_knl_Clock_Module_State_clockQ__O 
*          0    000005d0    00000004     
                  000005d0    00000004     protocol_pem3.oem3 (.const:ti_sysbios_knl_Clock_Module_State_clockQ__O)

.const:ti_sysbios_knl_Mailbox_Instance_State_dataQue__O 
*          0    000005d4    00000004     
                  000005d4    00000004     protocol_pem3.oem3 (.const:ti_sysbios_knl_Mailbox_Instance_State_dataQue__O)

.const:ti_sysbios_knl_Mailbox_Instance_State_dataSem__O 
*          0    000005d8    00000004     
                  000005d8    00000004     protocol_pem3.oem3 (.const:ti_sysbios_knl_Mailbox_Instance_State_dataSem__O)

.const:ti_sysbios_knl_Mailbox_Instance_State_freeQue__O 
*          0    000005dc    00000004     
                  000005dc    00000004     protocol_pem3.oem3 (.const:ti_sysbios_knl_Mailbox_Instance_State_freeQue__O)

.const:ti_sysbios_knl_Mailbox_Instance_State_freeSem__O 
*          0    000005e0    00000004     
                  000005e0    00000004     protocol_pem3.oem3 (.const:ti_sysbios_knl_Mailbox_Instance_State_freeSem__O)

.const:ti_sysbios_knl_Semaphore_Instance_State_pendQ__O 
*          0    000005e4    00000004     
                  000005e4    00000004     protocol_pem3.oem3 (.const:ti_sysbios_knl_Semaphore_Instance_State_pendQ__O)

.const:ti_sysbios_knl_Task_Module_State_inactiveQ__O 
*          0    000005e8    00000004     
                  000005e8    00000004     protocol_pem3.oem3 (.const:ti_sysbios_knl_Task_Module_State_inactiveQ__O)

.vecs      0    20000000    000000c8     UNINITIALIZED
                  20000000    000000c8     protocol_pem3.oem3 (.vecs)

.data:ti_sysbios_knl_Task_Module__state__V 
*          0    20000100    00000044     UNINITIALIZED
                  20000100    00000044     protocol_pem3.oem3 (.data:ti_sysbios_knl_Task_Module__state__V)

.data:ti_sysbios_family_arm_m3_Hwi_Module__state__V 
*          0    20000144    00000034     UNINITIALIZED
                  20000144    00000034     protocol_pem3.oem3 (.data:ti_sysbios_family_arm_m3_Hwi_Module__state__V)

.data:ti_sysbios_knl_Clock_Module__state__V 
*          0    20000178    0000002c     UNINITIALIZED
                  20000178    0000002c     protocol_pem3.oem3 (.data:ti_sysbios_knl_Clock_Module__state__V)

.data:ti_sysbios_BIOS_Module__state__V 
*          0    200001a4    00000024     UNINITIALIZED
                  200001a4    00000024     protocol_pem3.oem3 (.data:ti_sysbios_BIOS_Module__state__V)

.data:ti_sysbios_knl_Swi_Module__state__V 
*          0    200001c8    0000001c     UNINITIALIZED
                  200001c8    0000001c     protocol_pem3.oem3 (.data:ti_sysbios_knl_Swi_Module__state__V)

.data:ti_sysbios_family_arm_cc26xx_Timer_Module__state__V 
*          0    200001e4    00000008     UNINITIALIZED
                  200001e4    00000008     protocol_pem3.oem3 (.data:ti_sysbios_family_arm_cc26xx_Timer_Module__state__V)

.data:ti_sysbios_family_arm_cc26xx_TimestampProvider_Module__state__V 
*          0    200001ec    00000004     UNINITIALIZED
                  200001ec    00000004     protocol_pem3.oem3 (.data:ti_sysbios_family_arm_cc26xx_TimestampProvider_Module__state__V)

.data:xdc_runtime_Startup_Module__state__V 
*          0    200001f0    00000008     UNINITIALIZED
                  200001f0    00000008     protocol_pem3.oem3 (.data:xdc_runtime_Startup_Module__state__V)

.data:xdc_runtime_System_Module__state__V 
*          0    200001f8    00000008     UNINITIALIZED
                  200001f8    00000008     protocol_pem3.oem3 (.data:xdc_runtime_System_Module__state__V)

.data:xdc_runtime_Memory_Module__state__V 
*          0    20000200    00000004     UNINITIALIZED
                  20000200    00000004     protocol_pem3.oem3 (.data:xdc_runtime_Memory_Module__state__V)

.TI.bound:dmaSpi0RxControlTableEntry 
*          0    20000430    00000010     UNINITIALIZED
                  20000430    00000010     drivers_cc26xxware.aem3 : SPICC26XXDMA.oem3 (.TI.bound:dmaSpi0RxControlTableEntry)

.TI.bound:dmaSpi0TxControlTableEntry 
*          0    20000440    00000010     UNINITIALIZED
                  20000440    00000010     drivers_cc26xxware.aem3 : SPICC26XXDMA.oem3 (.TI.bound:dmaSpi0TxControlTableEntry)

.TI.bound:dmaSpi1RxControlTableEntry 
*          0    20000500    00000010     UNINITIALIZED
                  20000500    00000010     drivers_cc26xxware.aem3 : SPICC26XXDMA.oem3 (.TI.bound:dmaSpi1RxControlTableEntry)

.TI.bound:dmaSpi1TxControlTableEntry 
*          0    20000510    00000010     UNINITIALIZED
                  20000510    00000010     drivers_cc26xxware.aem3 : SPICC26XXDMA.oem3 (.TI.bound:dmaSpi1TxControlTableEntry)

.bss       0    20000520    00002493     UNINITIALIZED
                  20000520    00000c00     (.common:receiveStack)
                  20001120    00000438     (.common:hub)
                  20001558    00000400     (.common:ti_sysbios_heaps_HeapMem_Instance_State_0_buf__A)
                  20001958    00000400     (.common:timerStack)
                  20001d58    00000200     protocol_pem3.oem3 (.bss:taskStackSection)
                  20001f58    000001b8     (.common:spiCC26XXDMAObjects)
                  20002110    00000120     rtsv7M3_T_le_eabi.lib : trgmsg.obj (.bss:_CIOBUF_)
                  20002230    00000114     (.common:uartCC26XXObjects)
                  20002344    00000100     (.common:blinkStack)
                  20002444    000000e0     (.common:i2cCC26XXObjects)
                  20002524    000000c8     (.common:ti_sysbios_family_arm_m3_Hwi_dispatchTable)
                  200025ec    00000080     (.common:xdc_runtime_SysMin_Module_State_0_outbuf__A)
                  2000266c    0000007c     drivers_cc26xxware.aem3 : PINCC26XX.oem3 (.bss:PIN_HandleTable)
                  200026e8    00000078     (.common:adcCC26xxObjects)
                  20002760    00000050     (.common:blinkStruct)
                  200027b0    00000050     (.common:receiveStruct)
                  20002800    00000050     (.common:timerStruct)
                  20002850    00000034                             : PINCC26XX.oem3 (.bss:PinSwi)
                  20002884    00000020     bsp_spi.obj (.bss:spiParams)
                  200028a4    00000020     (.common:PinGpioConfigTable)
                  200028c4    00000020     (.common:udmaObjects)
                  200028e4    0000001c     (.common:PinHwi)
                  20002900    0000001c     (.common:PinSem)
                  2000291c    0000001c     (.common:adcSemaphore)
                  20002938    00000014     driverlib.lib : osc.obj (.bss:oscHfGlobals)
                  2000294c    0000000c     main.obj (.bss:intPinState)
                  20002958    0000000c     main.obj (.bss:ledPinState)
                  20002964    0000000c     bsp_spi.obj (.bss:pinState)
                  20002970    0000000c     ext_flash.obj (.bss:pinState)
                  2000297c    00000008     ext_flash.obj (.bss:flash_gate)
                  20002984    00000008     rtsv7M3_T_le_eabi.lib : trgdrv.obj (.bss:parmbuf)
                  2000298c    00000008     driverlib.lib : sys_ctrl.obj (.bss:powerQualGlobals)
                  20002994    00000004     ext_flash.obj (.bss)
                  20002998    00000004     main.obj (.bss)
                  2000299c    00000004     time_fxn.obj (.bss)
                  200029a0    00000004     (.common:PIN_NumPins)
                  200029a4    00000004     (.common:clkHandle)
                  200029a8    00000004     (.common:intPinHandle)
                  200029ac    00000004     (.common:pPinGpio)
                  200029b0    00000001     (.common:driverlib_release_0_46593)
                  200029b1    00000001     (.common:uartRxPowerConstraint)
                  200029b2    00000001     (.common:uartTxPowerConstraint)

.data      0    200029b8    0000038c     UNINITIALIZED
                  200029b8    00000110     drivers_cc26xxware.aem3 : PowerCC26XX.oem3 (.data:PowerCC26XX_module)
                  20002ac8    0000004c     protocol_pem3.oem3 (.data:ti_sysbios_knl_Task_Object__table__V)
                  20002b14    00000004     drivers_cc26xxware.aem3 : ADC.oem3 (.data)
                  20002b18    00000048     protocol_pem3.oem3 (.data:ti_sysbios_family_arm_cc26xx_Timer_Object__table__V)
                  20002b60    00000038     protocol_pem3.oem3 (.data:ti_sysbios_gates_GateMutex_Object__table__V)
                  20002b98    00000030     protocol_pem3.oem3 (.data:ti_sysbios_knl_Swi_Module_State_0_readyQ__A)
                  20002bc8    00000030     protocol_pem3.oem3 (.data:ti_sysbios_knl_Swi_Object__table__V)
                  20002bf8    00000020     protocol_pem3.oem3 (.data:ti_sysbios_knl_Clock_Object__table__V)
                  20002c18    00000020     protocol_pem3.oem3 (.data:ti_sysbios_knl_Task_Module_State_0_readyQ__A)
                  20002c38    00000018     main.obj (.data:ledPinTable)
                  20002c50    00000018     protocol_pem3.oem3 (.data:ti_sysbios_family_arm_m3_Hwi_Object__table__V)
                  20002c68    00000018     protocol_pem3.oem3 (.data:ti_sysbios_heaps_HeapMem_Object__table__V)
                  20002c80    00000010     bsp_spi.obj (.data:BoardSpiInitTable)
                  20002c90    0000000c     protocol_pem3.oem3 (.data:xdc_runtime_SysMin_Module__state__V)
                  20002c9c    00000009     bsp_spi.obj (.data)
                  20002ca5    00000001     lora.obj (.data)
                  20002ca6    00000002     drivers_cc26xxware.aem3 : ADCCC26XX.oem3 (.data)
                  20002ca8    00000008     rtsv7M3_T_le_eabi.lib : _lock.obj (.data:$O1$$)
                  20002cb0    00000008     ext_flash.obj (.data:BoardFlashPinTable)
                  20002cb8    00000008     main.obj (.data:interrupt_gpio)
                  20002cc0    00000008     protocol_pem3.oem3 (.data:ti_sysbios_family_arm_m3_Hwi_Module__root__V)
                  20002cc8    00000008     protocol_pem3.oem3 (.data:ti_sysbios_gates_GateHwi_Module__root__V)
                  20002cd0    00000008     protocol_pem3.oem3 (.data:ti_sysbios_gates_GateMutex_Module__root__V)
                  20002cd8    00000008     protocol_pem3.oem3 (.data:ti_sysbios_hal_Hwi_Module__root__V)
                  20002ce0    00000008     protocol_pem3.oem3 (.data:ti_sysbios_heaps_HeapMem_Module__root__V)
                  20002ce8    00000008     protocol_pem3.oem3 (.data:ti_sysbios_knl_Clock_Module__root__V)
                  20002cf0    00000008     protocol_pem3.oem3 (.data:ti_sysbios_knl_Mailbox_Module__root__V)
                  20002cf8    00000008     protocol_pem3.oem3 (.data:ti_sysbios_knl_Queue_Module__root__V)
                  20002d00    00000008     protocol_pem3.oem3 (.data:ti_sysbios_knl_Semaphore_Module__root__V)
                  20002d08    00000008     protocol_pem3.oem3 (.data:ti_sysbios_knl_Swi_Module__root__V)
                  20002d10    00000008     protocol_pem3.oem3 (.data:ti_sysbios_knl_Task_Module__root__V)
                  20002d18    00000008     protocol_pem3.oem3 (.data:xdc_runtime_System_Module_State_0_atexitHandlers__A)
                  20002d20    00000006     ext_flash.obj (.data)
                  20002d26    00000002     protocol_pem3.oem3 (.data:ti_sysbios_family_arm_m3_Hwi_Module_State_0_excActive__A)
                  20002d28    00000004     drivers_cc26xxware.aem3 : I2C.oem3 (.data)
                  20002d2c    00000004                             : SPI.oem3 (.data)
                  20002d30    00000004                             : UART.oem3 (.data)
                  20002d34    00000004     rtsv7M3_T_le_eabi.lib : stkdepth_vars.obj (.data)
                  20002d38    00000004     protocol_pem3.oem3 (.data:ti_sysbios_family_arm_m3_Hwi_Module_State_0_excContext__A)
                  20002d3c    00000004     protocol_pem3.oem3 (.data:ti_sysbios_family_arm_m3_Hwi_Module_State_0_excStack__A)
                  20002d40    00000004     protocol_pem3.oem3 (.data:ti_sysbios_knl_Task_Module_State_0_idleTask__A)

.stack     0    20004d00    00000300     UNINITIALIZED
                  20004d00    00000300     --HOLE--

.bootVecs 
*          0    00000000    00000008     DSECT
                  00000000    00000008     boot.aem3 : boot.oem3 (.bootVecs)

xdc.meta   0    00000000    00000109     COPY SECTION
                  00000000    00000109     protocol_pem3.oem3 (xdc.meta)

xdc.noload 
*          0    00000000    00000000     COPY SECTION

MODULE SUMMARY

       Module                            code    ro data   rw data
       ------                            ----    -------   -------
    .\
       main.obj                          864     0         5740   
       CC2650DK_7ID.obj                  0       360       1092   
       ccfg.obj                          0       88        0      
    +--+---------------------------------+-------+---------+---------+
       Total:                            864     448       6832   
                                                                  
    .\source\
       time_fxn.obj                      580     0         4      
       lora.obj                          176     0         1      
       receive_fxn.obj                   144     0         0      
    +--+---------------------------------+-------+---------+---------+
       Total:                            900     0         5      
                                                                  
    .\store_log\
       ext_flash.obj                     800     6         38     
       bsp_spi.obj                       362     0         69     
       store_log.obj                     48      0         0      
    +--+---------------------------------+-------+---------+---------+
       Total:                            1210    6         107    
                                                                  
    C:\Users\03468\workspace_v7\CC2650DK_7ID_TI_CC2650F128_Protocol_power_save\Debug\configPkg\package\cfg\
       protocol_pem3.oem3                450     1475      2858   
    +--+---------------------------------+-------+---------+---------+
       Total:                            450     1475      2858   
                                                                  
    C:/ti/tirtos_cc13xx_cc26xx_2_20_00_06/products/cc26xxware_2_24_02_17202/driverlib/bin/ccs/driverlib.lib
       setup.obj                         1682    0         0      
       sys_ctrl.obj                      712     0         8      
       aux_adc.obj                       530     0         0      
       osc.obj                           332     0         20     
       chipinfo.obj                      228     0         0      
       ddi.obj                           180     0         0      
       adi.obj                           88      0         0      
       aon_rtc.obj                       44      0         0      
       aon_batmon.obj                    40      0         0      
       cpu.obj                           30      0         0      
       vims.obj                          14      0         0      
       driverlib_release.obj             0       0         1      
    +--+---------------------------------+-------+---------+---------+
       Total:                            3880    0         29     
                                                                  
    C:/ti/tirtos_cc13xx_cc26xx_2_20_00_06/products/tidrivers_cc13xx_cc26xx_2_20_00_08/packages/ti/drivers/lib/drivers_cc26xxware.aem3
       UARTCC26XX.oem3                   2472    104       2      
       PowerCC26XX.oem3                  2064    76        272    
       SPICC26XXDMA.oem3                 2030    84        64     
       PINCC26XX.oem3                    1578    0         272    
       PowerCC26XX_calibrateRCOSC.oem3   1400    0         0      
       I2CCC26XX.oem3                    1358    32        0      
       ADCCC26XX.oem3                    422     24        30     
       UDMACC26XX.oem3                   184     0         0      
       SPI.oem3                          144     32        4      
       List.oem3                         82      0         0      
       UART.oem3                         66      0         4      
       ADC.oem3                          56      0         4      
       I2C.oem3                          56      0         4      
    +--+---------------------------------+-------+---------+---------+
       Total:                            11912   352       656    
                                                                  
    C:/ti/tirtos_cc13xx_cc26xx_2_20_00_06/products/tidrivers_cc13xx_cc26xx_2_20_00_08/packages/ti/drivers/lib/power_cc26xx_tirtos.aem3
       PowerCC26XX_tirtos.oem3           188     0         0      
    +--+---------------------------------+-------+---------+---------+
       Total:                            188     0         0      
                                                                  
    C:/ti/tirtos_cc13xx_cc26xx_2_20_00_06/products/tidrivers_cc13xx_cc26xx_2_20_00_08/packages/ti/drivers/ports/lib/tirtosport.aem3
       HwiP_tirtos.oem3                  4       0         0      
    +--+---------------------------------+-------+---------+---------+
       Total:                            4       0         0      
                                                                  
    C:\Users\03468\workspace_v7\CC2650DK_7ID_TI_CC2650F128_Protocol_power_save\src\sysbios\rom_sysbios.aem3
       rom_sysbios.obj                   942     0         0      
       rom_sysbios_config.obj            44      0         0      
    +--+---------------------------------+-------+---------+---------+
       Total:                            986     0         0      
                                                                  
    C:\ti\ccsv7\tools\compiler\ti-cgt-arm_16.9.0.LTS\lib\rtsv7M3_T_le_eabi.lib
       trgdrv.obj                        804     0         8      
       ull_div_t2.obj                    500     0         0      
       trgmsg.obj                        104     0         288    
       memcpy_t2.obj                     156     0         0      
       memset_t2.obj                     122     0         0      
       copy_decompress_lzss.obj          104     0         0      
       cpy_tbl.obj                       76      0         0      
       _lock.obj                         20      0         8      
       args_main.obj                     24      0         0      
       ll_mul_t2.obj                     24      0         0      
       strcpy.obj                        22      0         0      
       strlen.obj                        20      0         0      
       copy_decompress_none.obj          14      0         0      
       copy_zero_init.obj                12      0         0      
       stkdepth_vars.obj                 0       0         4      
    +--+---------------------------------+-------+---------+---------+
       Total:                            2002    0         308    
                                                                  
    C:\ti\tirtos_cc13xx_cc26xx_2_20_00_06\products\bios_6_46_00_23\packages\ti\targets\arm\rtsarm\lib\auto_init.aem3
       auto_init.oem3                    160     0         0      
    +--+---------------------------------+-------+---------+---------+
       Total:                            160     0         0      
                                                                  
    C:\ti\tirtos_cc13xx_cc26xx_2_20_00_06\products\bios_6_46_00_23\packages\ti\targets\arm\rtsarm\lib\boot.aem3
       boot.oem3                         68      0         0      
    +--+---------------------------------+-------+---------+---------+
       Total:                            68      0         0      
                                                                  
       Stack:                            0       0         768    
       Linker Generated:                 432     697       0      
    +--+---------------------------------+-------+---------+---------+
       Grand Total:                      23056   2978      11563  


LINKER GENERATED COPY TABLES

__TI_cinit_table @ 000065b8 records: 17, size/record: 8, table size: 136
	.data: load addr=00006380, load size=00000136 bytes, run addr=200029b8, run size=0000038c bytes, compression=lzss
	.data:ti_sysbios_family_arm_m3_Hwi_Module__state__V: load addr=000064b6, load size=00000028 bytes, run addr=20000144, run size=00000034 bytes, compression=lzss
	.data:ti_sysbios_knl_Task_Module__state__V: load addr=000064de, load size=00000021 bytes, run addr=20000100, run size=00000044 bytes, compression=lzss
	.data:ti_sysbios_BIOS_Module__state__V: load addr=000064ff, load size=0000001f bytes, run addr=200001a4, run size=00000024 bytes, compression=lzss
	.data:ti_sysbios_knl_Clock_Module__state__V: load addr=0000651e, load size=0000001b bytes, run addr=20000178, run size=0000002c bytes, compression=lzss
	.data:ti_sysbios_knl_Swi_Module__state__V: load addr=00006539, load size=00000010 bytes, run addr=200001c8, run size=0000001c bytes, compression=lzss
	.data:ti_sysbios_family_arm_cc26xx_Timer_Module__state__V: load addr=00006558, load size=0000000b bytes, run addr=200001e4, run size=00000008 bytes, compression=lzss
	.data:xdc_runtime_System_Module__state__V: load addr=00006563, load size=0000000b bytes, run addr=200001f8, run size=00000008 bytes, compression=lzss
	.TI.bound:dmaSpi0RxControlTableEntry: load addr=00006570, load size=00000008 bytes, run addr=20000430, run size=00000010 bytes, compression=zero_init
	.TI.bound:dmaSpi0TxControlTableEntry: load addr=00006578, load size=00000008 bytes, run addr=20000440, run size=00000010 bytes, compression=zero_init
	.TI.bound:dmaSpi1RxControlTableEntry: load addr=00006580, load size=00000008 bytes, run addr=20000500, run size=00000010 bytes, compression=zero_init
	.TI.bound:dmaSpi1TxControlTableEntry: load addr=00006588, load size=00000008 bytes, run addr=20000510, run size=00000010 bytes, compression=zero_init
	.bss: load addr=00006590, load size=00000008 bytes, run addr=20000520, run size=00002493 bytes, compression=zero_init
	.data:xdc_runtime_Memory_Module__state__V: load addr=00006598, load size=00000008 bytes, run addr=20000200, run size=00000004 bytes, compression=lzss
	.vecs: load addr=000065a0, load size=00000008 bytes, run addr=20000000, run size=000000c8 bytes, compression=zero_init
	.data:ti_sysbios_family_arm_cc26xx_TimestampProvider_Module__state__V: load addr=000065a8, load size=00000007 bytes, run addr=200001ec, run size=00000004 bytes, compression=lzss
	.data:xdc_runtime_Startup_Module__state__V: load addr=000065af, load size=00000007 bytes, run addr=200001f0, run size=00000008 bytes, compression=lzss


LINKER GENERATED HANDLER TABLE

__TI_handler_table @ 0000654c records: 3, size/record: 4, table size: 12
	index: 0, handler: __TI_decompress_lzss
	index: 1, handler: __TI_decompress_none
	index: 2, handler: __TI_zero_init


FAR CALL TRAMPOLINES

callee name               trampoline name
   callee addr  tramp addr   call addr  call info
--------------  -----------  ---------  ----------------
xdc_runtime_Startup_startMods__I  $Tramp$TT$L$PI$$xdc_runtime_Startup_startMods__I
   1001c30d     00005e54     00005c3c   protocol_pem3.oem3 (.text:xdc_runtime_Startup_exec__I)
ti_sysbios_knl_Clock_logTick__E  $Tramp$TT$L$PI$$ti_sysbios_knl_Clock_logTick__E
   1001be67     00005e5c     00005c0e   protocol_pem3.oem3 (.text:ti_sysbios_knl_Clock_doTick__I)
ti_sysbios_knl_Task_Params__init__S  $Tramp$TT$L$PI$$ti_sysbios_knl_Task_Params__init__S
   1001c1d9     00005e64     00005b52   main.obj (.text:ti_sysbios_knl_Task_Params_init)
ti_sysbios_BIOS_RtsGateProxy_leave__E  $Tramp$TT$L$PI$$ti_sysbios_BIOS_RtsGateProxy_leave__E
   1001c24d     00005e6c     00005ac6   protocol_pem3.oem3 (.text:ti_sysbios_BIOS_rtsUnlock__I)
ti_sysbios_BIOS_RtsGateProxy_enter__E  $Tramp$TT$L$PI$$ti_sysbios_BIOS_RtsGateProxy_enter__E
   1001c249     00005e74     0000571a   protocol_pem3.oem3 (.text:ti_sysbios_BIOS_rtsLock__I)
ti_sysbios_gates_GateHwi_Instance_init__E  $Tramp$TT$L$PI$$ti_sysbios_gates_GateHwi_Instance_init__E
   1001b463     00005e7c     000054dc   rom_sysbios.aem3 : rom_sysbios_config.obj (.text:ti_sysbios_gates_GateHwi_construct)
xdc_runtime_Core_constructObject__I  $Tramp$TT$L$PI$$xdc_runtime_Core_constructObject__I
   1001c639     00005e84     000054d4   rom_sysbios.aem3 : rom_sysbios_config.obj (.text:ti_sysbios_gates_GateHwi_construct)
ti_sysbios_knl_Task_startup__E  $Tramp$TT$L$PI$$ti_sysbios_knl_Task_startup__E
   1001c309     00005e8c     0000539c   protocol_pem3.oem3 (.text:ti_sysbios_BIOS_startFunc__I)
ti_sysbios_knl_Swi_startup__E  $Tramp$TT$L$PI$$ti_sysbios_knl_Swi_startup__E
   1001c23d     00005e94     00005398   protocol_pem3.oem3 (.text:ti_sysbios_BIOS_startFunc__I)
ti_sysbios_hal_Hwi_startup__E  $Tramp$TT$L$PI$$ti_sysbios_hal_Hwi_startup__E
   1001c28d     00005e9c     00005394   protocol_pem3.oem3 (.text:ti_sysbios_BIOS_startFunc__I)
ti_sysbios_family_arm_cc26xx_Timer_startup__E  $Tramp$TT$L$PI$$ti_sysbios_family_arm_cc26xx_Timer_startup__E
   1001b795     00005ea4     00005390   protocol_pem3.oem3 (.text:ti_sysbios_BIOS_startFunc__I)
xdc_runtime_System_atexit__E  $Tramp$TT$L$PI$$xdc_runtime_System_atexit__E
   1001c681     00005eac     00005388   protocol_pem3.oem3 (.text:ti_sysbios_BIOS_startFunc__I)
ti_sysbios_BIOS_setThreadType__E  $Tramp$TT$L$PI$$ti_sysbios_BIOS_setThreadType__E
   1001c045     00005eb4     00005354   protocol_pem3.oem3 (.text:ti_sysbios_BIOS_atExitFunc__I)
                             00005b20   protocol_pem3.oem3 (.text:ti_sysbios_BIOS_exitFunc__I)
xdc_runtime_Gate_leaveSystem__E  $Tramp$TT$L$PI$$xdc_runtime_Gate_leaveSystem__E
   1001c879     00005ebc     00004c2c   rom_sysbios.aem3 : rom_sysbios.obj (.text:xdc_runtime_SysMin_flush__E)
                             0000507c                    : rom_sysbios.obj (.text:xdc_runtime_SysMin_putch__E)
xdc_runtime_Gate_enterSystem__E  $Tramp$TT$L$PI$$xdc_runtime_Gate_enterSystem__E
   1001c885     00005ec4     00004bfe   rom_sysbios.aem3 : rom_sysbios.obj (.text:xdc_runtime_SysMin_flush__E)
                             0000505e                    : rom_sysbios.obj (.text:xdc_runtime_SysMin_putch__E)
xdc_runtime_System_exit__E  $Tramp$TT$L$PI$$xdc_runtime_System_exit__E
   1001c7d1     00005ecc     00004be4   boot.aem3 : boot.oem3 (.text)
                             00005b26   protocol_pem3.oem3 (.text:ti_sysbios_BIOS_exitFunc__I)
ti_sysbios_knl_Task_exit__E  $Tramp$TT$L$PI$$ti_sysbios_knl_Task_exit__E
   1001b429     00005ed4     00003e1a   bsp_spi.obj (.text:bspSpiOpen)
ti_sysbios_knl_Clock_destruct  $Tramp$TT$L$PI$$ti_sysbios_knl_Clock_destruct
   1001c2b9     00005edc     00003a88   drivers_cc26xxware.aem3 : UARTCC26XX.oem3 (.text:UARTCC26XX_close)
ti_sysbios_knl_Semaphore_destruct  $Tramp$TT$L$PI$$ti_sysbios_knl_Semaphore_destruct
   1001c2e1     00005ee4     00003a74   drivers_cc26xxware.aem3 : UARTCC26XX.oem3 (.text:UARTCC26XX_close)
                             00003a80                           : UARTCC26XX.oem3 (.text:UARTCC26XX_close)
                             000041c4                           : I2CCC26XX.oem3 (.text:I2CCC26XX_close)
                             000041d0                           : I2CCC26XX.oem3 (.text:I2CCC26XX_close)
                             00004582                           : SPICC26XXDMA.oem3 (.text:SPICC26XXDMA_close)
                             00004cdc                           : ADCCC26XX.oem3 (.text:ADCCC26XX_close)
ti_sysbios_knl_Swi_destruct  $Tramp$TT$L$PI$$ti_sysbios_knl_Swi_destruct
   1001c2e9     00005eec     00003a68   drivers_cc26xxware.aem3 : UARTCC26XX.oem3 (.text:UARTCC26XX_close)
                             000041bc                           : I2CCC26XX.oem3 (.text:I2CCC26XX_close)
                             00004570                           : SPICC26XXDMA.oem3 (.text:SPICC26XXDMA_close)
ti_sysbios_family_arm_m3_Hwi_destruct  $Tramp$TT$L$PI$$ti_sysbios_family_arm_m3_Hwi_destruct
   1001c261     00005ef4     00003a60   drivers_cc26xxware.aem3 : UARTCC26XX.oem3 (.text:UARTCC26XX_close)
                             000041b4                           : I2CCC26XX.oem3 (.text:I2CCC26XX_close)
                             00004568                           : SPICC26XXDMA.oem3 (.text:SPICC26XXDMA_close)
                             000050ae                           : UDMACC26XX.oem3 (.text:UDMACC26XX_close)
ti_sysbios_knl_Clock_scheduleNextTick__E  $Tramp$TT$L$PI$$ti_sysbios_knl_Clock_scheduleNextTick__E
   1001bebd     00005efc     00003292   rom_sysbios.aem3 : rom_sysbios.obj (.text:ti_sysbios_knl_Clock_workFuncDynamic__E)
ti_sysbios_knl_Clock_walkQueueDynamic__E  $Tramp$TT$L$PI$$ti_sysbios_knl_Clock_walkQueueDynamic__E
   1001a80d     00005f04     0000325a   rom_sysbios.aem3 : rom_sysbios.obj (.text:ti_sysbios_knl_Clock_workFuncDynamic__E)
                             00003276                    : rom_sysbios.obj (.text:ti_sysbios_knl_Clock_workFuncDynamic__E)
ti_sysbios_knl_Clock_TimerProxy_getCurrentTick__E  $Tramp$TT$L$PI$$ti_sysbios_knl_Clock_TimerProxy_getCurrentTick__E
   1001c095     00005f0c     00003228   rom_sysbios.aem3 : rom_sysbios.obj (.text:ti_sysbios_knl_Clock_workFuncDynamic__E)
                             000054fa                    : rom_sysbios.obj (.text:ti_sysbios_knl_Clock_getTicksUntilInterrupt__E)
ti_sysbios_knl_Task_sleep__E  $Tramp$TT$L$PI$$ti_sysbios_knl_Task_sleep__E
   1001a96d     00005f14     00002e08   lora.obj (.text:set_lora_mode)
                             00002e24   lora.obj (.text:set_lora_mode)
ti_sysbios_knl_Semaphore_post__E  $Tramp$TT$L$PI$$ti_sysbios_knl_Semaphore_post__E
   1001ac41     00005f1c     00002a94   drivers_cc26xxware.aem3 : I2CCC26XX.oem3 (.text:I2CCC26XX_transfer)
                             000033ba                           : PINCC26XX.oem3 (.text:PIN_open)
                             000038aa                           : ADCCC26XX.oem3 (.text:ADCCC26XX_convert)
                             00003f00                           : PINCC26XX.oem3 (.text:PIN_add)
                             0000413a   time_fxn.obj (.text:timer_fxn)
                             0000414a   time_fxn.obj (.text:timer_fxn)
                             00005aae   main.obj (.text:start_receive)
                             00005e04   drivers_cc26xxware.aem3 : I2CCC26XX.oem3 (.text:I2CCC26XX_blockingCallback)
                             00005e0c                           : SPICC26XXDMA.oem3 (.text:SPICC26XXDMA_transferCallback)
                             00005e14                           : UARTCC26XX.oem3 (.text:readSemCallback)
                             00005e1c                           : UARTCC26XX.oem3 (.text:writeSemCallback)
ti_sysbios_family_arm_m3_Hwi_enableInterrupt__E  $Tramp$TT$L$PI$$ti_sysbios_family_arm_m3_Hwi_enableInterrupt__E
   1001b2dd     00005f24     00002a50   drivers_cc26xxware.aem3 : I2CCC26XX.oem3 (.text:I2CCC26XX_transfer)
ti_sysbios_family_arm_m3_Hwi_disableInterrupt__E  $Tramp$TT$L$PI$$ti_sysbios_family_arm_m3_Hwi_disableInterrupt__E
   1001b299     00005f2c     00002a3e   drivers_cc26xxware.aem3 : I2CCC26XX.oem3 (.text:I2CCC26XX_transfer)
ti_sysbios_BIOS_getCpuFreq__E  $Tramp$TT$L$PI$$ti_sysbios_BIOS_getCpuFreq__E
   1001bff9     00005f34     000028a0   drivers_cc26xxware.aem3 : UARTCC26XX.oem3 (.text:UARTCC26XX_initHw)
                             000042de                           : SPICC26XXDMA.oem3 (.text:SPICC26XXDMA_initHw)
                             000049c8                           : I2CCC26XX.oem3 (.text:I2CCC26XX_initHw)
ti_sysbios_knl_Clock_create  $Tramp$TT$L$PI$$ti_sysbios_knl_Clock_create
   1001b3ed     00005f3c     0000266e   main.obj (.text:create_task)
ti_sysbios_knl_Task_construct  $Tramp$TT$L$PI$$ti_sysbios_knl_Task_construct
   1001b125     00005f44     00002604   main.obj (.text:create_task)
                             00002620   main.obj (.text:create_task)
                             00002642   main.obj (.text:create_task)
ti_sysbios_gates_GateHwi_leave__E  $Tramp$TT$L$PI$$ti_sysbios_gates_GateHwi_leave__E
   1001c21f     00005f4c     0000216a   time_fxn.obj (.text:timer_task)
                             000037f8   ext_flash.obj (.text:extFlashOpen)
                             00003b0a   receive_fxn.obj (.text:write_lora)
                             00004cac   ext_flash.obj (.text:extFlashClose)
ti_sysbios_gates_GateHwi_enter__E  $Tramp$TT$L$PI$$ti_sysbios_gates_GateHwi_enter__E
   1001c16d     00005f54     000020c6   time_fxn.obj (.text:timer_task)
                             000037d4   ext_flash.obj (.text:extFlashOpen)
                             00003ac0   receive_fxn.obj (.text:write_lora)
ti_sysbios_knl_Swi_post__E  $Tramp$TT$L$PI$$ti_sysbios_knl_Swi_post__E
   1001b321     00005f5c     0000201e   drivers_cc26xxware.aem3 : UARTCC26XX.oem3 (.text:UARTCC26XX_hwiIntFxn)
                             0000226e                           : I2CCC26XX.oem3 (.text:I2CCC26XX_hwiFxn)
                             00002a8e                           : I2CCC26XX.oem3 (.text:I2CCC26XX_transfer)
                             0000308a                           : SPICC26XXDMA.oem3 (.text:SPICC26XXDMA_hwiFxn)
                             000045de                           : I2CCC26XX.oem3 (.text:I2CCC26XX_swiFxn)
                             00005ae4   rom_sysbios.aem3 : rom_sysbios.obj (.text:ti_sysbios_knl_Swi_or__E)
                             00005c16   protocol_pem3.oem3 (.text:ti_sysbios_knl_Clock_doTick__I)
ti_sysbios_BIOS_start__E  $Tramp$TT$L$PI$$ti_sysbios_BIOS_start__E
   1001c055     00005f64     00001e46   main.obj (.text:main)
xdc_runtime_System_abort__E  $Tramp$TT$L$PI$$xdc_runtime_System_abort__E
   1001c749     00005f6c     00001de8   main.obj (.text:main)
                             00001e14   main.obj (.text:main)
                             00001e2c   main.obj (.text:main)
ti_sysbios_knl_Semaphore_pend__E  $Tramp$TT$L$PI$$ti_sysbios_knl_Semaphore_pend__E
   1001a0cd     00005f74     00001c5a   drivers_cc26xxware.aem3 : UARTCC26XX.oem3 (.text:UARTCC26XX_write)
                             00001c96                           : UARTCC26XX.oem3 (.text:UARTCC26XX_write)
                             000020bc   time_fxn.obj (.text:timer_task)
                             00002376   time_fxn.obj (.text:blink_task)
                             000029b8   drivers_cc26xxware.aem3 : SPICC26XXDMA.oem3 (.text:SPICC26XXDMA_transfer)
                             000029ce                           : SPICC26XXDMA.oem3 (.text:SPICC26XXDMA_transfer)
                             00002a36                           : I2CCC26XX.oem3 (.text:I2CCC26XX_transfer)
                             00002a66                           : I2CCC26XX.oem3 (.text:I2CCC26XX_transfer)
                             00002c94                           : UARTCC26XX.oem3 (.text:UARTCC26XX_read)
                             00003352                           : PINCC26XX.oem3 (.text:PIN_open)
                             00003852                           : ADCCC26XX.oem3 (.text:ADCCC26XX_convert)
                             00003cc6                           : UARTCC26XX.oem3 (.text:writeTxFifoFlush)
                             00003ed4                           : PINCC26XX.oem3 (.text:PIN_add)
ti_sysbios_knl_Clock_setTimeout__E  $Tramp$TT$L$PI$$ti_sysbios_knl_Clock_setTimeout__E
   1001c2c1     00005f7c     00001a8a   drivers_cc26xxware.aem3 : PowerCC26XX.oem3 (.text:Power_init)
                             00002b9e   power_cc26xx_tirtos.aem3 : PowerCC26XX_tirtos.oem3 (.text:PowerCC26XX_standbyPolicy)
                             0000344c   drivers_cc26xxware.aem3 : UARTCC26XX.oem3 (.text:writeFinishedDoCallback)
                             00003544                           : PowerCC26XX.oem3 (.text:switchXOSCHFclockFunc)
                             000038f6                           : PowerCC26XX.oem3 (.text:disableLFClockQualifiers)
                             00004734                           : PowerCC26XX.oem3 (.text:configureXOSCHF)
                             000049aa                           : UARTCC26XX.oem3 (.text:startTxFifoEmptyClk)
ti_sysbios_knl_Clock_start__E  $Tramp$TT$L$PI$$ti_sysbios_knl_Clock_start__E
   1001bfe3     00005f84     000015b0   drivers_cc26xxware.aem3 : PowerCC26XX_calibrateRCOSC.oem3 (.text:PowerCC26XX_doCalibrate)
                             00001a90                           : PowerCC26XX.oem3 (.text:Power_init)
                             00002ba4   power_cc26xx_tirtos.aem3 : PowerCC26XX_tirtos.oem3 (.text:PowerCC26XX_standbyPolicy)
                             00003452   drivers_cc26xxware.aem3 : UARTCC26XX.oem3 (.text:writeFinishedDoCallback)
                             0000354a                           : PowerCC26XX.oem3 (.text:switchXOSCHFclockFunc)
                             000038fc                           : PowerCC26XX.oem3 (.text:disableLFClockQualifiers)
                             0000473a                           : PowerCC26XX.oem3 (.text:configureXOSCHF)
                             000049b0                           : UARTCC26XX.oem3 (.text:startTxFifoEmptyClk)
                             00005766   rom_sysbios.aem3 : rom_sysbios.obj (.text:ti_sysbios_knl_Clock_stop__E)
xdc_runtime_System_abortSpin__E  $Tramp$TT$L$PI$$xdc_runtime_System_abortSpin__E
   1001c899     00005f8c     00001532   drivers_cc26xxware.aem3 : PowerCC26XX_calibrateRCOSC.oem3 (.text:PowerCC26XX_doCalibrate)
                             0000427a                           : PowerCC26XX_calibrateRCOSC.oem3 (.text:PowerCC26XX_RCOSC_clockFunc)
ti_sysbios_knl_Clock_construct  $Tramp$TT$L$PI$$ti_sysbios_knl_Clock_construct
   1001b579     00005f94     0000141e   drivers_cc26xxware.aem3 : UARTCC26XX.oem3 (.text:UARTCC26XX_open)
                             000019f6                           : PowerCC26XX.oem3 (.text:Power_init)
                             00001a04                           : PowerCC26XX.oem3 (.text:Power_init)
                             00001a12                           : PowerCC26XX.oem3 (.text:Power_init)
                             00003f60                           : PowerCC26XX.oem3 (.text:PowerCC26XX_calibrate)
ti_sysbios_knl_Clock_Params__init__S  $Tramp$TT$L$PI$$ti_sysbios_knl_Clock_Params__init__S
   1001c185     00005f9c     00001406   drivers_cc26xxware.aem3 : UARTCC26XX.oem3 (.text:UARTCC26XX_open)
                             000019de                           : PowerCC26XX.oem3 (.text:Power_init)
                             00003f48                           : PowerCC26XX.oem3 (.text:PowerCC26XX_calibrate)
                             00005b3c   main.obj (.text:ti_sysbios_knl_Clock_Params_init)
ti_sysbios_family_arm_m3_Hwi_restoreFxn__E  $Tramp$TT$L$PI$$ti_sysbios_family_arm_m3_Hwi_restoreFxn__E
   1001c219     00005fa4     000012e2   drivers_cc26xxware.aem3 : UARTCC26XX.oem3 (.text:UARTCC26XX_open)
                             000012f2                           : UARTCC26XX.oem3 (.text:UARTCC26XX_open)
                             00001378                           : UARTCC26XX.oem3 (.text:UARTCC26XX_open)
                             00001754                           : SPICC26XXDMA.oem3 (.text:SPICC26XXDMA_open)
                             00001764                           : SPICC26XXDMA.oem3 (.text:SPICC26XXDMA_open)
                             000017c2                           : SPICC26XXDMA.oem3 (.text:SPICC26XXDMA_open)
                             00001c12                           : UARTCC26XX.oem3 (.text:UARTCC26XX_write)
                             00001c2e                           : UARTCC26XX.oem3 (.text:UARTCC26XX_write)
                             00001ccc                           : UARTCC26XX.oem3 (.text:UARTCC26XX_write)
                             00001cfc                           : I2CCC26XX.oem3 (.text:I2CCC26XX_open)
                             00001d0c                           : I2CCC26XX.oem3 (.text:I2CCC26XX_open)
                             00001ee6                           : SPICC26XXDMA.oem3 (.text:SPICC26XXDMA_transferCancel)
                             00001f56                           : SPICC26XXDMA.oem3 (.text:SPICC26XXDMA_transferCancel)
                             00001faa                           : SPICC26XXDMA.oem3 (.text:SPICC26XXDMA_transferCancel)
                             000024f2                           : PowerCC26XX.oem3 (.text:Power_releaseDependency)
                             0000276a                           : PowerCC26XX.oem3 (.text:Power_setDependency)
                             00002936                           : SPICC26XXDMA.oem3 (.text:SPICC26XXDMA_transfer)
                             00002948                           : SPICC26XXDMA.oem3 (.text:SPICC26XXDMA_transfer)
                             0000298a                           : SPICC26XXDMA.oem3 (.text:SPICC26XXDMA_transfer)
                             00002a10                           : I2CCC26XX.oem3 (.text:I2CCC26XX_transfer)
                             00002a22                           : I2CCC26XX.oem3 (.text:I2CCC26XX_transfer)
                             00002c38                           : UARTCC26XX.oem3 (.text:UARTCC26XX_read)
                             00002c50                           : UARTCC26XX.oem3 (.text:UARTCC26XX_read)
                             00002c6c                           : UARTCC26XX.oem3 (.text:UARTCC26XX_read)
                             00002cba                           : UARTCC26XX.oem3 (.text:UARTCC26XX_read)
                             00002d78                           : PINCC26XX.oem3 (.text:PINCC26XX_setIoCfg)
                             00002f0a                           : ADCCC26XX.oem3 (.text:ADCCC26XX_open)
                             00002f58                           : ADCCC26XX.oem3 (.text:ADCCC26XX_open)
                             0000340a                           : UARTCC26XX.oem3 (.text:writeFinishedDoCallback)
                             000034e6                           : I2CCC26XX.oem3 (.text:I2CCC26XX_cancel)
                             00003572                           : PowerCC26XX.oem3 (.text:switchXOSCHFclockFunc)
                             00003746                           : UARTCC26XX.oem3 (.text:UARTCC26XX_writeCancel)
                             00003752                           : UARTCC26XX.oem3 (.text:UARTCC26XX_writeCancel)
                             00003794                           : UARTCC26XX.oem3 (.text:UARTCC26XX_writeCancel)
                             00003a94                           : UARTCC26XX.oem3 (.text:UARTCC26XX_close)
                             00003d7a                           : UARTCC26XX.oem3 (.text:UARTCC26XX_readCancel)
                             00003da8                           : UARTCC26XX.oem3 (.text:UARTCC26XX_readCancel)
                             00003dc4                           : UARTCC26XX.oem3 (.text:UARTCC26XX_readCancel)
                             000041e4                           : I2CCC26XX.oem3 (.text:I2CCC26XX_close)
                             000044d6                           : UDMACC26XX.oem3 (.text:UDMACC26XX_open)
                             00004598                           : SPICC26XXDMA.oem3 (.text:SPICC26XXDMA_close)
                             0000461e                           : PowerCC26XX_calibrateRCOSC.oem3 (.text:PowerCC26XX_initiateCalibration)
                             0000468c                           : UARTCC26XX.oem3 (.text:UARTCC26XX_control)
                             0000478c                           : SPICC26XXDMA.oem3 (.text:SPICC26XXDMA_swiFxn)
                             000048b2                           : UARTCC26XX.oem3 (.text:UARTCC26XX_swiIntFxn)
                             00004aca                           : PINCC26XX.oem3 (.text:PIN_setOutputEnable)
                             00004ce6                           : ADCCC26XX.oem3 (.text:ADCCC26XX_close)
                             000050bc                           : UDMACC26XX.oem3 (.text:UDMACC26XX_close)
                             0000524c                           : PowerCC26XX.oem3 (.text:Power_releaseConstraint)
                             0000527c                           : PowerCC26XX.oem3 (.text:Power_setConstraint)
                             000055d4                           : List.oem3 (.text:List_put)
                             00005708                           : PowerCC26XX.oem3 (.text:Power_unregisterNotify)
ti_sysbios_family_arm_m3_Hwi_disableFxn__E  $Tramp$TT$L$PI$$ti_sysbios_family_arm_m3_Hwi_disableFxn__E
   1001c149     00005fac     000012d8   drivers_cc26xxware.aem3 : UARTCC26XX.oem3 (.text:UARTCC26XX_open)
                             00001372                           : UARTCC26XX.oem3 (.text:UARTCC26XX_open)
                             00001748                           : SPICC26XXDMA.oem3 (.text:SPICC26XXDMA_open)
                             000017ba                           : SPICC26XXDMA.oem3 (.text:SPICC26XXDMA_open)
                             00001bf4                           : UARTCC26XX.oem3 (.text:UARTCC26XX_write)
                             00001c16                           : UARTCC26XX.oem3 (.text:UARTCC26XX_write)
                             00001c6e                           : UARTCC26XX.oem3 (.text:UARTCC26XX_write)
                             00001cb8                           : UARTCC26XX.oem3 (.text:UARTCC26XX_write)
                             00001cf0                           : I2CCC26XX.oem3 (.text:I2CCC26XX_open)
                             00001eda                           : SPICC26XXDMA.oem3 (.text:SPICC26XXDMA_transferCancel)
                             00001f30                           : SPICC26XXDMA.oem3 (.text:SPICC26XXDMA_transferCancel)
                             0000243e                           : PowerCC26XX.oem3 (.text:Power_releaseDependency)
                             000026ba                           : PowerCC26XX.oem3 (.text:Power_setDependency)
                             0000292c                           : SPICC26XXDMA.oem3 (.text:SPICC26XXDMA_transfer)
                             00002966                           : SPICC26XXDMA.oem3 (.text:SPICC26XXDMA_transfer)
                             000029fc                           : I2CCC26XX.oem3 (.text:I2CCC26XX_transfer)
                             00002c28                           : UARTCC26XX.oem3 (.text:UARTCC26XX_read)
                             00002c54                           : UARTCC26XX.oem3 (.text:UARTCC26XX_read)
                             00002ca6                           : UARTCC26XX.oem3 (.text:UARTCC26XX_read)
                             00002d5a                           : PINCC26XX.oem3 (.text:PINCC26XX_setIoCfg)
                             00002efc                           : ADCCC26XX.oem3 (.text:ADCCC26XX_open)
                             000033f2                           : UARTCC26XX.oem3 (.text:writeFinishedDoCallback)
                             00003476                           : I2CCC26XX.oem3 (.text:I2CCC26XX_cancel)
                             000034fc                           : PowerCC26XX.oem3 (.text:switchXOSCHFclockFunc)
                             00003736                           : UARTCC26XX.oem3 (.text:UARTCC26XX_writeCancel)
                             0000377e                           : UARTCC26XX.oem3 (.text:UARTCC26XX_writeCancel)
                             00003a8c                           : UARTCC26XX.oem3 (.text:UARTCC26XX_close)
                             00003d6e                           : UARTCC26XX.oem3 (.text:UARTCC26XX_readCancel)
                             00003d92                           : UARTCC26XX.oem3 (.text:UARTCC26XX_readCancel)
                             000041dc                           : I2CCC26XX.oem3 (.text:I2CCC26XX_close)
                             0000449c                           : UDMACC26XX.oem3 (.text:UDMACC26XX_open)
                             0000458e                           : SPICC26XXDMA.oem3 (.text:SPICC26XXDMA_close)
                             0000460a                           : PowerCC26XX_calibrateRCOSC.oem3 (.text:PowerCC26XX_initiateCalibration)
                             0000466e                           : UARTCC26XX.oem3 (.text:UARTCC26XX_control)
                             00004768                           : SPICC26XXDMA.oem3 (.text:SPICC26XXDMA_swiFxn)
                             0000489a                           : UARTCC26XX.oem3 (.text:UARTCC26XX_swiIntFxn)
                             00004ab4                           : PINCC26XX.oem3 (.text:PIN_setOutputEnable)
                             00004cc4                           : ADCCC26XX.oem3 (.text:ADCCC26XX_close)
                             00005092                           : UDMACC26XX.oem3 (.text:UDMACC26XX_close)
                             0000522c                           : PowerCC26XX.oem3 (.text:Power_releaseConstraint)
                             0000525c                           : PowerCC26XX.oem3 (.text:Power_setConstraint)
                             000056f8                           : PowerCC26XX.oem3 (.text:Power_unregisterNotify)
                             00005e3e   tirtosport.aem3 : HwiP_tirtos.oem3 (.text:HwiP_disable)
ti_sysbios_knl_Swi_construct  $Tramp$TT$L$PI$$ti_sysbios_knl_Swi_construct
   1001b085     00005fb4     00001260   drivers_cc26xxware.aem3 : PINCC26XX.oem3 (.text:PIN_init)
                             000013c2                           : UARTCC26XX.oem3 (.text:UARTCC26XX_open)
                             0000180a                           : SPICC26XXDMA.oem3 (.text:SPICC26XXDMA_open)
                             00001d68                           : I2CCC26XX.oem3 (.text:I2CCC26XX_open)
ti_sysbios_knl_Swi_Params__init__S  $Tramp$TT$L$PI$$ti_sysbios_knl_Swi_Params__init__S
   1001c1cd     00005fbc     0000124e   drivers_cc26xxware.aem3 : PINCC26XX.oem3 (.text:PIN_init)
                             000013ac                           : UARTCC26XX.oem3 (.text:UARTCC26XX_open)
                             000017f6                           : SPICC26XXDMA.oem3 (.text:SPICC26XXDMA_open)
                             00001d54                           : I2CCC26XX.oem3 (.text:I2CCC26XX_open)
ti_sysbios_family_arm_m3_Hwi_construct  $Tramp$TT$L$PI$$ti_sysbios_family_arm_m3_Hwi_construct
   1001af29     00005fc4     00001242   drivers_cc26xxware.aem3 : PINCC26XX.oem3 (.text:PIN_init)
                             000013a0                           : UARTCC26XX.oem3 (.text:UARTCC26XX_open)
                             000017ea                           : SPICC26XXDMA.oem3 (.text:SPICC26XXDMA_open)
                             00001d48                           : I2CCC26XX.oem3 (.text:I2CCC26XX_open)
                             00003f70                           : PowerCC26XX.oem3 (.text:PowerCC26XX_calibrate)
                             000044c6                           : UDMACC26XX.oem3 (.text:UDMACC26XX_open)
ti_sysbios_family_arm_m3_Hwi_Params__init__S  $Tramp$TT$L$PI$$ti_sysbios_family_arm_m3_Hwi_Params__init__S
   1001c13d     00005fcc     0000122c   drivers_cc26xxware.aem3 : PINCC26XX.oem3 (.text:PIN_init)
                             00001388                           : UARTCC26XX.oem3 (.text:UARTCC26XX_open)
                             000017d2                           : SPICC26XXDMA.oem3 (.text:SPICC26XXDMA_open)
                             00001d30                           : I2CCC26XX.oem3 (.text:I2CCC26XX_open)
                             000044b0                           : UDMACC26XX.oem3 (.text:UDMACC26XX_open)
ti_sysbios_knl_Semaphore_construct  $Tramp$TT$L$PI$$ti_sysbios_knl_Semaphore_construct
   1001b709     00005fd4     000011ca   drivers_cc26xxware.aem3 : PINCC26XX.oem3 (.text:PIN_init)
                             000013e2                           : UARTCC26XX.oem3 (.text:UARTCC26XX_open)
                             000013f6                           : UARTCC26XX.oem3 (.text:UARTCC26XX_open)
                             0000182a                           : SPICC26XXDMA.oem3 (.text:SPICC26XXDMA_open)
                             00001b38   main.obj (.text:initialization)
                             00001b42   main.obj (.text:initialization)
                             00001b4c   main.obj (.text:initialization)
                             00001d84   drivers_cc26xxware.aem3 : I2CCC26XX.oem3 (.text:I2CCC26XX_open)
                             00001d94                           : I2CCC26XX.oem3 (.text:I2CCC26XX_open)
                             00002f2e                           : ADCCC26XX.oem3 (.text:ADCCC26XX_open)
ti_sysbios_knl_Semaphore_Params__init__S  $Tramp$TT$L$PI$$ti_sysbios_knl_Semaphore_Params__init__S
   1001c1c1     00005fdc     000011b8   drivers_cc26xxware.aem3 : PINCC26XX.oem3 (.text:PIN_init)
                             000013ce                           : UARTCC26XX.oem3 (.text:UARTCC26XX_open)
                             0000181a                           : SPICC26XXDMA.oem3 (.text:SPICC26XXDMA_open)
                             00001d74                           : I2CCC26XX.oem3 (.text:I2CCC26XX_open)
                             00002f20                           : ADCCC26XX.oem3 (.text:ADCCC26XX_open)
ti_sysbios_knl_Task_restore__E  $Tramp$TT$L$PI$$ti_sysbios_knl_Task_restore__E
   1001ba49     00005fe4     00000af8   drivers_cc26xxware.aem3 : PowerCC26XX.oem3 (.text:Power_sleep)
ti_sysbios_knl_Swi_restore__E  $Tramp$TT$L$PI$$ti_sysbios_knl_Swi_restore__E
   1001b5e1     00005fec     00000aee   drivers_cc26xxware.aem3 : PowerCC26XX.oem3 (.text:Power_sleep)
ti_sysbios_knl_Swi_disable__E  $Tramp$TT$L$PI$$ti_sysbios_knl_Swi_disable__E
   1001c0d5     00005ff4     0000094a   drivers_cc26xxware.aem3 : PowerCC26XX.oem3 (.text:Power_sleep)
                             0000534a   protocol_pem3.oem3 (.text:ti_sysbios_BIOS_atExitFunc__I)
ti_sysbios_knl_Task_disable__E  $Tramp$TT$L$PI$$ti_sysbios_knl_Task_disable__E
   1001c0f5     00005ffc     00000932   drivers_cc26xxware.aem3 : PowerCC26XX.oem3 (.text:Power_sleep)
                             0000534e   protocol_pem3.oem3 (.text:ti_sysbios_BIOS_atExitFunc__I)

[54 trampolines]
[255 trampoline calls]


GLOBAL SYMBOLS: SORTED ALPHABETICALLY BY Name 

address   name                                                                      
-------   ----                                                                      
00004cc1  ADCCC26XX_close                                                           
00005e21  ADCCC26XX_control                                                         
00003845  ADCCC26XX_convert                                                         
00004ded  ADCCC26XX_convertRawToMicroVolts                                          
000062c4  ADCCC26XX_fxnTable                                                        
00005df9  ADCCC26XX_init                                                            
00002eed  ADCCC26XX_open                                                            
0000612c  ADC_config                                                                
00004e25  ADC_init                                                                  
00006278  BoardGpioInitTable                                                        
000040ef  C$$IO$$                                                                   
000008c7  HOSTclock                                                                 
0000088f  HOSTclose                                                                 
00000851  HOSTgetenv                                                                
000007f5  HOSTlseek                                                                 
000007a3  HOSTopen                                                                  
00000757  HOSTread                                                                  
000006f9  HOSTrename                                                                
000006bf  HOSTtime                                                                  
00000671  HOSTtime64                                                                
00000639  HOSTunlink                                                                
000005ed  HOSTwrite                                                                 
00005e3f  HwiP_disable                                                              
UNDEFED   HwiP_restore                                                              
00003469  I2CCC26XX_cancel                                                          
00004191  I2CCC26XX_close                                                           
00005e27  I2CCC26XX_control                                                         
00006238  I2CCC26XX_fxnTable                                                        
00005dbd  I2CCC26XX_init                                                            
00001ce1  I2CCC26XX_open                                                            
000029dd  I2CCC26XX_transfer                                                        
00006294  I2C_config                                                                
00004e5d  I2C_init                                                                  
00005dc7  List_empty                                                                
00005e43  List_head                                                                 
00005e47  List_next                                                                 
000055b5  List_put                                                                  
000058ed  List_remove                                                               
00005515  NOROM_AONBatMonTemperatureGetDegC                                         
00005b59  NOROM_AONRTCCurrent64BitValueGet                                          
00005909  NOROM_AONRTCCurrentCompareValueGet                                        
00005691  NOROM_AUXADCAdjustValueForGainAndOffset                                   
000032ad  NOROM_AUXADCDisable                                                       
000050c5  NOROM_AUXADCDisableInputScaling                                           
00002aa1  NOROM_AUXADCEnableSync                                                    
00005c45  NOROM_AUXADCFlushFifo                                                     
000057f1  NOROM_AUXADCGetAdjustmentGain                                             
00005921  NOROM_AUXADCGetAdjustmentOffset                                           
00005c55  NOROM_AUXADCReadFifo                                                      
00005b6d  NOROM_AUXADCValueToMicrovolts                                             
00005cfb  NOROM_CPUcpsid                                                            
00005d07  NOROM_CPUcpsie                                                            
00005e2d  NOROM_CPUdelay                                                            
00004a09  NOROM_ChipInfo_GetChipFamily                                              
00003cf5  NOROM_ChipInfo_GetHwRevision                                              
00005939  NOROM_ChipInfo_GetPackageType                                             
00004c41  NOROM_DDI16BitfieldRead                                                   
00004a51  NOROM_DDI16BitfieldWrite                                                  
00005439  NOROM_DDI32RegWrite                                                       
0000580d  NOROM_OSCClockSourceGet                                                   
00004845  NOROM_OSCClockSourceSet                                                   
00004379  NOROM_OSCHF_AttemptToSwitchToXosc                                         
000050f9  NOROM_OSCHF_SwitchToRcOscTurnOffXosc                                      
00005951  NOROM_OSCHF_TurnOnXosc                                                    
00004cfd  NOROM_OSC_HPOSCRelativeFrequencyOffsetGet                                 
000039bd  NOROM_SetupAfterColdResetWakeupFromShutDownCfg1                           
0000227d  NOROM_SetupAfterColdResetWakeupFromShutDownCfg2                           
00001881  NOROM_SetupAfterColdResetWakeupFromShutDownCfg3                           
00005969  NOROM_SetupGetTrimForAdcShModeEn                                          
00005981  NOROM_SetupGetTrimForAdcShVbufEn                                          
00003e45  NOROM_SetupGetTrimForAmpcompCtrl                                          
00005999  NOROM_SetupGetTrimForAmpcompTh1                                           
00005829  NOROM_SetupGetTrimForAmpcompTh2                                           
00003f89  NOROM_SetupGetTrimForAnabypassValue1                                      
000059b1  NOROM_SetupGetTrimForDblrLoopFilterResetVoltage                           
00005465  NOROM_SetupGetTrimForRadcExtCfg                                           
000059c9  NOROM_SetupGetTrimForRcOscLfIBiasTrim                                     
00005845  NOROM_SetupGetTrimForRcOscLfRtuneCtuneTrim                                
000056d5  NOROM_SetupGetTrimForXoscHfCtl                                            
00005c65  NOROM_SetupGetTrimForXoscHfFastStart                                      
00005c75  NOROM_SetupGetTrimForXoscHfIbiastherm                                     
000059e1  NOROM_SetupGetTrimForXoscLfRegulatorAndCmirrwrRatio                       
000051f9  NOROM_SetupSetAonRtcSubSecInc                                             
000047a5  NOROM_SetupSetCacheModeAccordingToCcfgSetting                             
00005cb5  NOROM_SetupSignExtendVddrTrimValue                                        
00002f91  NOROM_SetupTrimDevice                                                     
000043d5  NOROM_SysCtrlAdjustRechargeAfterPowerDown                                 
00000b39  NOROM_SysCtrlSetRechargeBeforePowerDown                                   
00003ff1  NOROM_SysCtrl_DCDC_VoltageConditionalControl                              
00005b81  NOROM_ThisCodeIsBuiltForCC26xxHwRev22AndLater_HaltIfViolated              
00005cc3  NOROM_VIMSModeGet                                                         
00004d39  PINCC26XX_getConfig                                                       
000055dd  PINCC26XX_getPinCount                                                     
0000634c  PINCC26XX_hwAttrs                                                         
00005491  PINCC26XX_setMux                                                          
2000266c  PIN_HandleTable                                                           
200029a0  PIN_NumPins                                                               
00003eb1  PIN_add                                                                   
00005795  PIN_close                                                                 
000059f9  PIN_getConfig                                                             
00005b95  PIN_getOutputValue                                                        
00001101  PIN_init                                                                  
00003341  PIN_open                                                                  
00005d13  PIN_registerIntCb                                                         
00004431  PIN_remove                                                                
0000512d  PIN_setConfig                                                             
00004e95  PIN_setInterrupt                                                          
00004a99  PIN_setOutputEnable                                                       
00004d75  PIN_setOutputValue                                                        
00004259  PowerCC26XX_RCOSC_clockFunc                                               
00003b25  PowerCC26XX_auxISR                                                        
00003f1d  PowerCC26XX_calibrate                                                     
00006320  PowerCC26XX_config                                                        
00001455  PowerCC26XX_doCalibrate                                                   
000045f9  PowerCC26XX_initiateCalibration                                           
200029b8  PowerCC26XX_module                                                        
00002b61  PowerCC26XX_standbyPolicy                                                 
00005d21  Power_getConstraintMask                                                   
00005d2d  Power_getDependencyCount                                                  
000057b3  Power_getTransitionLatency                                                
00005a11  Power_idleFunc                                                            
000019b1  Power_init                                                                
0000553d  Power_registerNotify                                                      
00005229  Power_releaseConstraint                                                   
00002439  Power_releaseDependency                                                   
00005259  Power_setConstraint                                                       
000026b5  Power_setDependency                                                       
00000911  Power_sleep                                                               
000056f5  Power_unregisterNotify                                                    
00004bb9  ResetISR                                                                  
UNDEFED   SHT$$INIT_ARRAY$$Base                                                     
UNDEFED   SHT$$INIT_ARRAY$$Limit                                                    
00004545  SPICC26XXDMA_close                                                        
00003615  SPICC26XXDMA_control                                                      
00006004  SPICC26XXDMA_fxnTable                                                     
00005cd1  SPICC26XXDMA_init                                                         
00001739  SPICC26XXDMA_open                                                         
00002919  SPICC26XXDMA_transfer                                                     
00001ed1  SPICC26XXDMA_transferCancel                                               
00005ba9  SPI_Params_init                                                           
00005dd1  SPI_close                                                                 
000061f0  SPI_config                                                                
00006258  SPI_defaultParams                                                         
00004ecd  SPI_init                                                                  
00005289  SPI_open                                                                  
00005ddb  SPI_transfer                                                              
000052b9  SafeHapiAuxAdiSelect                                                      
0000558d  SafeHapiVoid                                                              
00003a35  UARTCC26XX_close                                                          
00004651  UARTCC26XX_control                                                        
000061a0  UARTCC26XX_fxnTable                                                       
00001fbd  UARTCC26XX_hwiIntFxn                                                      
00005a29  UARTCC26XX_init                                                           
000012c5  UARTCC26XX_open                                                           
00002c1d  UARTCC26XX_read                                                           
00003d65  UARTCC26XX_readCancel                                                     
00005e33  UARTCC26XX_readPolling                                                    
00004891  UARTCC26XX_swiIntFxn                                                      
00001be5  UARTCC26XX_write                                                          
0000372d  UARTCC26XX_writeCancel                                                    
00005e39  UARTCC26XX_writePolling                                                   
000062ac  UART_config                                                               
00004f05  UART_init                                                                 
00005de5  UART_write                                                                
0000508d  UDMACC26XX_close                                                          
00006330  UDMACC26XX_config                                                         
00005def  UDMACC26XX_hwiIntFxn                                                      
0000448d  UDMACC26XX_open                                                           
00000000  __ASM__                                                                   
20002110  __CIOBUF_                                                                 
00000083  __ISA__                                                                   
00000095  __PLAT__                                                                  
20005000  __STACK_END                                                               
00000300  __STACK_SIZE                                                              
000000bc  __TARG__                                                                  
000065b8  __TI_CINIT_Base                                                           
00006640  __TI_CINIT_Limit                                                          
0000654c  __TI_Handler_Table_Base                                                   
00006558  __TI_Handler_Table_Limit                                                  
000030d9  __TI_auto_init                                                            
00004059  __TI_decompress_lzss                                                      
00005cdf  __TI_decompress_none                                                      
ffffffff  __TI_pprof_out_hndl                                                       
ffffffff  __TI_prof_data_size                                                       
ffffffff  __TI_prof_data_start                                                      
000040f3  __TI_readmsg                                                              
00006380  __TI_static_base__                                                        
000040c1  __TI_writemsg                                                             
00005d39  __TI_zero_init                                                            
000000e1  __TRDR__                                                                  
00005a89  __aeabi_lmul                                                              
00003941  __aeabi_memclr                                                            
00003941  __aeabi_memclr4                                                           
00003941  __aeabi_memclr8                                                           
00003179  __aeabi_memcpy                                                            
00003179  __aeabi_memcpy4                                                           
00003179  __aeabi_memcpy8                                                           
00003943  __aeabi_memset                                                            
00003943  __aeabi_memset4                                                           
00003943  __aeabi_memset8                                                           
00000d3d  __aeabi_uldivmod                                                          
ffffffff  __binit__                                                                 
ffffffff  __c_args__                                                                
0001ffa8  __ccfg                                                                    
20004d00  __stack                                                                   
00005a71  _args_main                                                                
00004bb9  _c_int00                                                                  
20002ca8  _lock                                                                     
00005bf3  _nop                                                                      
00005beb  _register_lock                                                            
00005be5  _register_unlock                                                          
20002cac  _unlock                                                                   
00006214  adcCC26xxHWAttrs                                                          
200026e8  adcCC26xxObjects                                                          
ffffffff  binit                                                                     
20002344  blinkStack                                                                
20002760  blinkStruct                                                               
00002361  blink_task                                                                
000046a9  bspSpiClose                                                               
00005a41  bspSpiFlush                                                               
00003dd5  bspSpiOpen                                                                
00004f3d  bspSpiRead                                                                
00004f75  bspSpiWrite                                                               
200029a4  clkHandle                                                                 
00004929  copy_in                                                                   
200029b0  driverlib_release_0_46593                                                 
00004c81  extFlashClose                                                             
00002e41  extFlashErase                                                             
000037b9  extFlashOpen                                                              
00005c85  get_pin                                                                   
20001120  hub                                                                       
000062dc  i2cCC26XXHWAttrs                                                          
20002444  i2cCC26XXObjects                                                          
200029a8  intPinHandle                                                              
20002cb8  interrupt_gpio                                                            
20002c38  ledPinTable                                                               
00001dd9  main                                                                      
20002d34  main_func_sp                                                              
00003179  memcpy                                                                    
00003949  memset                                                                    
20000520  receiveStack                                                              
200027b0  receiveStruct                                                             
00005d45  receive_fxn                                                               
00006058  resourceDB                                                                
00002d91  set_lora_mode                                                             
000058b5  set_pin                                                                   
00006168  spiCC26XXDMAHWAttrs                                                       
20001f58  spiCC26XXDMAObjects                                                       
00005319  spi_clear_everything                                                      
00005b01  strcpy                                                                    
00005bf9  strlen                                                                    
200001a4  ti_sysbios_BIOS_Module__state__V                                          
1001bc29  ti_sysbios_BIOS_RtsGateProxy_Handle__label__S                             
UNDEFED   ti_sysbios_BIOS_RtsGateProxy_Handle__label__S__mangled__                  
1001bab9  ti_sysbios_BIOS_RtsGateProxy_Object__delete__S                            
UNDEFED   ti_sysbios_BIOS_RtsGateProxy_Object__delete__S__mangled__                 
1001c179  ti_sysbios_BIOS_RtsGateProxy_Params__init__S                              
UNDEFED   ti_sysbios_BIOS_RtsGateProxy_Params__init__S__mangled__                   
1001c249  ti_sysbios_BIOS_RtsGateProxy_enter__E                                     
1001c24d  ti_sysbios_BIOS_RtsGateProxy_leave__E                                     
1001c275  ti_sysbios_BIOS_RtsGateProxy_query__E                                     
UNDEFED   ti_sysbios_BIOS_RtsGateProxy_query__E__mangled__                          
00005349  ti_sysbios_BIOS_atExitFunc__I                                             
00005b17  ti_sysbios_BIOS_exitFunc__I                                               
1001c035  ti_sysbios_BIOS_exit__E                                                   
1001bff9  ti_sysbios_BIOS_getCpuFreq__E                                             
000039bb  ti_sysbios_BIOS_linkedWithIncorrectBootLibrary__E                         
000045f7  ti_sysbios_BIOS_nullFunc__I                                               
00005625  ti_sysbios_BIOS_registerRTSLock__I                                        
00005649  ti_sysbios_BIOS_removeRTSLock__I                                          
00005715  ti_sysbios_BIOS_rtsLock__I                                                
00005ab9  ti_sysbios_BIOS_rtsUnlock__I                                              
1001c045  ti_sysbios_BIOS_setThreadType__E                                          
00005379  ti_sysbios_BIOS_startFunc__I                                              
1001c055  ti_sysbios_BIOS_start__E                                                  
00002f91  ti_sysbios_family_arm_cc26xx_Boot_trimDevice                              
00000502  ti_sysbios_family_arm_cc26xx_Timer_Module__id__C                          
1001bb49  ti_sysbios_family_arm_cc26xx_Timer_Module__startupDone__S                 
200001e4  ti_sysbios_family_arm_cc26xx_Timer_Module__state__V                       
1001ba71  ti_sysbios_family_arm_cc26xx_Timer_Module_startup__E                      
20002b18  ti_sysbios_family_arm_cc26xx_Timer_Object__table__V                       
00005735  ti_sysbios_family_arm_cc26xx_Timer_dynamicStub__E                         
00005e4f  ti_sysbios_family_arm_cc26xx_Timer_getCount64__E                          
00004fe5  ti_sysbios_family_arm_cc26xx_Timer_getCurrentTick__E                      
1001c251  ti_sysbios_family_arm_cc26xx_Timer_getExpiredTicks__E                     
0000566d  ti_sysbios_family_arm_cc26xx_Timer_getMaxTicks__E                         
1001c255  ti_sysbios_family_arm_cc26xx_Timer_getPeriod__E                           
00005161  ti_sysbios_family_arm_cc26xx_Timer_initDevice__I                          
1001a469  ti_sysbios_family_arm_cc26xx_Timer_periodicStub__E                        
1001b769  ti_sysbios_family_arm_cc26xx_Timer_postInit__I                            
000051c7  ti_sysbios_family_arm_cc26xx_Timer_setNextTick__E                         
1001c259  ti_sysbios_family_arm_cc26xx_Timer_setPeriod__E                           
000053a9  ti_sysbios_family_arm_cc26xx_Timer_setThreshold__I                        
00003c0d  ti_sysbios_family_arm_cc26xx_Timer_start__E                               
00000484  ti_sysbios_family_arm_cc26xx_Timer_startupNeeded__C                       
1001b795  ti_sysbios_family_arm_cc26xx_Timer_startup__E                             
200001ec  ti_sysbios_family_arm_cc26xx_TimestampProvider_Module__state__V           
1001bb69  ti_sysbios_family_arm_cc26xx_TimestampProvider_Module_startup__E          
00005ced  ti_sysbios_family_arm_cc26xx_TimestampProvider_get32__E                   
1001b9d1  ti_sysbios_family_arm_cc26xx_TimestampProvider_get64__E                   
1001c12f  ti_sysbios_family_arm_cc26xx_TimestampProvider_getFreq__E                 
00000504  ti_sysbios_family_arm_cc26xx_TimestampProvider_useClockTimer__C           
00000488  ti_sysbios_family_arm_m3_Hwi_E_alreadyDefined__C                          
0000048c  ti_sysbios_family_arm_m3_Hwi_E_hwiLimitExceeded__C                        
1001aed1  ti_sysbios_family_arm_m3_Hwi_Instance_finalize__E                         
1001a3c9  ti_sysbios_family_arm_m3_Hwi_Instance_init__E                             
20002d26  ti_sysbios_family_arm_m3_Hwi_Module_State_0_excActive__A                  
20002d38  ti_sysbios_family_arm_m3_Hwi_Module_State_0_excContext__A                 
20002d3c  ti_sysbios_family_arm_m3_Hwi_Module_State_0_excStack__A                   
00000506  ti_sysbios_family_arm_m3_Hwi_Module__id__C                                
20002cc0  ti_sysbios_family_arm_m3_Hwi_Module__root__V                              
1001bb89  ti_sysbios_family_arm_m3_Hwi_Module__startupDone__S                       
20000144  ti_sysbios_family_arm_m3_Hwi_Module__state__V                             
1001b1c1  ti_sysbios_family_arm_m3_Hwi_Module_startup__E                            
00000490  ti_sysbios_family_arm_m3_Hwi_NUM_INTERRUPTS__C                            
000002d0  ti_sysbios_family_arm_m3_Hwi_Object__DESC__C                              
00000170  ti_sysbios_family_arm_m3_Hwi_Object__PARAMS__C                            
00000494  ti_sysbios_family_arm_m3_Hwi_Object__count__C                             
1001aab1  ti_sysbios_family_arm_m3_Hwi_Object__create__S                            
1001bba9  ti_sysbios_family_arm_m3_Hwi_Object__delete__S                            
1001be69  ti_sysbios_family_arm_m3_Hwi_Object__destruct__S                          
1001b7c1  ti_sysbios_family_arm_m3_Hwi_Object__get__S                               
00000498  ti_sysbios_family_arm_m3_Hwi_Object__table__C                             
20002c50  ti_sysbios_family_arm_m3_Hwi_Object__table__V                             
1001c13d  ti_sysbios_family_arm_m3_Hwi_Params__init__S                              
0000049c  ti_sysbios_family_arm_m3_Hwi_ccr__C                                       
1001af29  ti_sysbios_family_arm_m3_Hwi_construct                                    
1001ab15  ti_sysbios_family_arm_m3_Hwi_create                                       
1001c25d  ti_sysbios_family_arm_m3_Hwi_delete                                       
1001c261  ti_sysbios_family_arm_m3_Hwi_destruct                                     
1001c149  ti_sysbios_family_arm_m3_Hwi_disableFxn__E                                
1001b299  ti_sysbios_family_arm_m3_Hwi_disableInterrupt__E                          
1001aa49  ti_sysbios_family_arm_m3_Hwi_dispatchC__I                                 
20002524  ti_sysbios_family_arm_m3_Hwi_dispatchTable                                
1001c89d  ti_sysbios_family_arm_m3_Hwi_dispatch__I                                  
1001c1fb  ti_sysbios_family_arm_m3_Hwi_doSwiRestore__I                              
1001c213  ti_sysbios_family_arm_m3_Hwi_doTaskRestore__I                             
1001c155  ti_sysbios_family_arm_m3_Hwi_enableFxn__E                                 
1001b2dd  ti_sysbios_family_arm_m3_Hwi_enableInterrupt__E                           
1001ca01  ti_sysbios_family_arm_m3_Hwi_excHandlerAsm__I                             
000004a0  ti_sysbios_family_arm_m3_Hwi_excHandlerFunc__C                            
1001bbc9  ti_sysbios_family_arm_m3_Hwi_excHandler__I                                
1001b465  ti_sysbios_family_arm_m3_Hwi_getStackInfo__E                              
1001a699  ti_sysbios_family_arm_m3_Hwi_initNVIC__E                                  
1001c9b9  ti_sysbios_family_arm_m3_Hwi_initStacks__E                                
000004a4  ti_sysbios_family_arm_m3_Hwi_nullIsrFunc__C                               
000004a8  ti_sysbios_family_arm_m3_Hwi_numSparseInterrupts__C                       
e000e000  ti_sysbios_family_arm_m3_Hwi_nvic                                         
1001ca3f  ti_sysbios_family_arm_m3_Hwi_pendSV__I                                    
1001c065  ti_sysbios_family_arm_m3_Hwi_plug__E                                      
1001a319  ti_sysbios_family_arm_m3_Hwi_postInit__I                                  
000004ac  ti_sysbios_family_arm_m3_Hwi_priGroup__C                                  
20000000  ti_sysbios_family_arm_m3_Hwi_ramVectors                                   
00000000  ti_sysbios_family_arm_m3_Hwi_resetVectors                                 
1001c219  ti_sysbios_family_arm_m3_Hwi_restoreFxn__E                                
1001ca57  ti_sysbios_family_arm_m3_Hwi_return                                       
1001be85  ti_sysbios_family_arm_m3_Hwi_setPriority__E                               
1001c203  ti_sysbios_family_arm_m3_Hwi_startup__E                                   
1001c00d  ti_sysbios_family_arm_m3_Hwi_switchFromBootStack__E                       
1001c265  ti_sysbios_family_arm_m3_TaskSupport_Module__startupDone__S               
1001c96d  ti_sysbios_family_arm_m3_TaskSupport_buildTaskStack                       
1001c161  ti_sysbios_family_arm_m3_TaskSupport_getStackAlignment__E                 
1001ca59  ti_sysbios_family_arm_m3_TaskSupport_glue                                 
000004b0  ti_sysbios_family_arm_m3_TaskSupport_stackAlignment__C                    
1001b49d  ti_sysbios_family_arm_m3_TaskSupport_start__E                             
1001ca69  ti_sysbios_family_arm_m3_TaskSupport_swap__E                              
1001ca21  ti_sysbios_family_xxx_Hwi_switchAndRunFunc                                
1001bbe9  ti_sysbios_gates_GateHwi_Handle__label__S                                 
1001b463  ti_sysbios_gates_GateHwi_Instance_init__E                                 
0000021c  ti_sysbios_gates_GateHwi_Module__FXNS__C                                  
00000508  ti_sysbios_gates_GateHwi_Module__id__C                                    
20002cc8  ti_sysbios_gates_GateHwi_Module__root__V                                  
000002f0  ti_sysbios_gates_GateHwi_Object__DESC__C                                  
00000430  ti_sysbios_gates_GateHwi_Object__PARAMS__C                                
1001ba95  ti_sysbios_gates_GateHwi_Object__create__S                                
1001bc09  ti_sysbios_gates_GateHwi_Object__delete__S                                
000054bd  ti_sysbios_gates_GateHwi_construct                                        
1001c16d  ti_sysbios_gates_GateHwi_enter__E                                         
1001c21f  ti_sysbios_gates_GateHwi_leave__E                                         
1001c269  ti_sysbios_gates_GateHwi_query__E                                         
1001bc29  ti_sysbios_gates_GateMutex_Handle__label__S                               
000005cc  ti_sysbios_gates_GateMutex_Instance_State_sem__O                          
1001c075  ti_sysbios_gates_GateMutex_Instance_finalize__E                           
1001bea1  ti_sysbios_gates_GateMutex_Instance_init__E                               
00000240  ti_sysbios_gates_GateMutex_Module__FXNS__C                                
0000050a  ti_sysbios_gates_GateMutex_Module__id__C                                  
20002cd0  ti_sysbios_gates_GateMutex_Module__root__V                                
00000310  ti_sysbios_gates_GateMutex_Object__DESC__C                                
00000448  ti_sysbios_gates_GateMutex_Object__PARAMS__C                              
1001b649  ti_sysbios_gates_GateMutex_Object__create__S                              
1001bab9  ti_sysbios_gates_GateMutex_Object__delete__S                              
1001bc49  ti_sysbios_gates_GateMutex_Object__destruct__S                            
20002b60  ti_sysbios_gates_GateMutex_Object__table__V                               
1001c179  ti_sysbios_gates_GateMutex_Params__init__S                                
1001b7ed  ti_sysbios_gates_GateMutex_construct                                      
1001b679  ti_sysbios_gates_GateMutex_create                                         
1001c26d  ti_sysbios_gates_GateMutex_delete                                         
1001c271  ti_sysbios_gates_GateMutex_destruct                                       
1001b6a9  ti_sysbios_gates_GateMutex_enter__E                                       
1001bf9d  ti_sysbios_gates_GateMutex_leave__E                                       
1001c275  ti_sysbios_gates_GateMutex_query__E                                       
1001c279  ti_sysbios_hal_Hwi_HwiProxy_Module__startupDone__S                        
UNDEFED   ti_sysbios_hal_Hwi_HwiProxy_Module__startupDone__S__mangled__             
1001c085  ti_sysbios_hal_Hwi_HwiProxy_Object__create__S                             
1001bba9  ti_sysbios_hal_Hwi_HwiProxy_Object__delete__S                             
UNDEFED   ti_sysbios_hal_Hwi_HwiProxy_Object__delete__S__mangled__                  
1001c13d  ti_sysbios_hal_Hwi_HwiProxy_Params__init__S                               
UNDEFED   ti_sysbios_hal_Hwi_HwiProxy_Params__init__S__mangled__                    
1001be49  ti_sysbios_hal_Hwi_HwiProxy_create                                        
1001c27d  ti_sysbios_hal_Hwi_HwiProxy_delete                                        
1001c281  ti_sysbios_hal_Hwi_HwiProxy_disableInterrupt__E                           
UNDEFED   ti_sysbios_hal_Hwi_HwiProxy_disableInterrupt__E__mangled__                
1001c285  ti_sysbios_hal_Hwi_HwiProxy_enableInterrupt__E                            
UNDEFED   ti_sysbios_hal_Hwi_HwiProxy_enableInterrupt__E__mangled__                 
1001c289  ti_sysbios_hal_Hwi_HwiProxy_getStackInfo__E                               
UNDEFED   ti_sysbios_hal_Hwi_HwiProxy_getStackInfo__E__mangled__                    
1001c28d  ti_sysbios_hal_Hwi_HwiProxy_startup__E                                    
UNDEFED   ti_sysbios_hal_Hwi_HwiProxy_startup__E__mangled__                         
1001c291  ti_sysbios_hal_Hwi_HwiProxy_switchFromBootStack__E                        
UNDEFED   ti_sysbios_hal_Hwi_HwiProxy_switchFromBootStack__E__mangled__             
1001c1f1  ti_sysbios_hal_Hwi_Instance_finalize__E                                   
1001b9f9  ti_sysbios_hal_Hwi_Instance_init__E                                       
20002cd8  ti_sysbios_hal_Hwi_Module__root__V                                        
1001c021  ti_sysbios_hal_Hwi_Module_startup__E                                      
00000330  ti_sysbios_hal_Hwi_Object__DESC__C                                        
000001a0  ti_sysbios_hal_Hwi_Object__PARAMS__C                                      
1001bc69  ti_sysbios_hal_Hwi_Object__delete__S                                      
1001ab79  ti_sysbios_hal_Hwi_create                                                 
1001c295  ti_sysbios_hal_Hwi_delete                                                 
1001c281  ti_sysbios_hal_Hwi_disableInterrupt__E                                    
UNDEFED   ti_sysbios_hal_Hwi_disableInterrupt__E                                    
1001c285  ti_sysbios_hal_Hwi_enableInterrupt__E                                     
UNDEFED   ti_sysbios_hal_Hwi_enableInterrupt__E                                     
1001c289  ti_sysbios_hal_Hwi_getStackInfo__E                                        
UNDEFED   ti_sysbios_hal_Hwi_getStackInfo__E                                        
1001b819  ti_sysbios_hal_Hwi_initStack                                              
1001c28d  ti_sysbios_hal_Hwi_startup__E                                             
UNDEFED   ti_sysbios_hal_Hwi_startup__E                                             
1001c299  ti_sysbios_hal_Hwi_switchFromBootStack__E                                 
UNDEFED   ti_sysbios_hal_Hwi_switchFromBootStack__E                                 
000004b4  ti_sysbios_heaps_HeapMem_E_memory__C                                      
1001bc89  ti_sysbios_heaps_HeapMem_Handle__label__S                                 
20001558  ti_sysbios_heaps_HeapMem_Instance_State_0_buf__A                          
1001b4d5  ti_sysbios_heaps_HeapMem_Instance_init__E                                 
1001bc29  ti_sysbios_heaps_HeapMem_Module_GateProxy_Handle__label__S                
UNDEFED   ti_sysbios_heaps_HeapMem_Module_GateProxy_Handle__label__S__mangled__     
1001bab9  ti_sysbios_heaps_HeapMem_Module_GateProxy_Object__delete__S               
UNDEFED   ti_sysbios_heaps_HeapMem_Module_GateProxy_Object__delete__S__mangled__    
1001c179  ti_sysbios_heaps_HeapMem_Module_GateProxy_Params__init__S                 
UNDEFED   ti_sysbios_heaps_HeapMem_Module_GateProxy_Params__init__S__mangled__      
1001c29d  ti_sysbios_heaps_HeapMem_Module_GateProxy_enter__E                        
1001c2a1  ti_sysbios_heaps_HeapMem_Module_GateProxy_leave__E                        
1001c275  ti_sysbios_heaps_HeapMem_Module_GateProxy_query__E                        
UNDEFED   ti_sysbios_heaps_HeapMem_Module_GateProxy_query__E__mangled__             
000001cc  ti_sysbios_heaps_HeapMem_Module__FXNS__C                                  
000004b8  ti_sysbios_heaps_HeapMem_Module__gateObj__C                               
0000050c  ti_sysbios_heaps_HeapMem_Module__id__C                                    
20002ce0  ti_sysbios_heaps_HeapMem_Module__root__V                                  
00000350  ti_sysbios_heaps_HeapMem_Object__DESC__C                                  
00000264  ti_sysbios_heaps_HeapMem_Object__PARAMS__C                                
000004bc  ti_sysbios_heaps_HeapMem_Object__count__C                                 
1001b845  ti_sysbios_heaps_HeapMem_Object__create__S                                
1001bca9  ti_sysbios_heaps_HeapMem_Object__delete__S                                
1001b871  ti_sysbios_heaps_HeapMem_Object__get__S                                   
000004c0  ti_sysbios_heaps_HeapMem_Object__table__C                                 
20002c68  ti_sysbios_heaps_HeapMem_Object__table__V                                 
1001a199  ti_sysbios_heaps_HeapMem_alloc__E                                         
1001a795  ti_sysbios_heaps_HeapMem_free__E                                          
1001b209  ti_sysbios_heaps_HeapMem_getStats__E                                      
1001b545  ti_sysbios_heaps_HeapMem_init__I                                          
1001c2a5  ti_sysbios_heaps_HeapMem_isBlocking__E                                    
000004c4  ti_sysbios_heaps_HeapMem_reqAlign__C                                      
1001c105  ti_sysbios_heaps_HeapMem_restore__E                                       
1001bfcd  ti_sysbios_knl_Clock_Instance_finalize__E                                 
1001b50d  ti_sysbios_knl_Clock_Instance_init__E                                     
000005d0  ti_sysbios_knl_Clock_Module_State_clockQ__O                               
20002ce8  ti_sysbios_knl_Clock_Module__root__V                                      
20000178  ti_sysbios_knl_Clock_Module__state__V                                     
1001bcc9  ti_sysbios_knl_Clock_Module_startup__E                                    
00000370  ti_sysbios_knl_Clock_Object__DESC__C                                      
00000288  ti_sysbios_knl_Clock_Object__PARAMS__C                                    
1001badd  ti_sysbios_knl_Clock_Object__delete__S                                    
1001bce9  ti_sysbios_knl_Clock_Object__destruct__S                                  
20002bf8  ti_sysbios_knl_Clock_Object__table__V                                     
1001c185  ti_sysbios_knl_Clock_Params__init__S                                      
1001c2a9  ti_sysbios_knl_Clock_TimerProxy_Module__startupDone__S                    
UNDEFED   ti_sysbios_knl_Clock_TimerProxy_Module__startupDone__S__mangled__         
1001c095  ti_sysbios_knl_Clock_TimerProxy_getCurrentTick__E                         
1001c2ad  ti_sysbios_knl_Clock_TimerProxy_getExpiredTicks__E                        
1001c0a5  ti_sysbios_knl_Clock_TimerProxy_getMaxTicks__E                            
1001c2b1  ti_sysbios_knl_Clock_TimerProxy_getPeriod__E                              
1001c0b5  ti_sysbios_knl_Clock_TimerProxy_setNextTick__E                            
1001b795  ti_sysbios_knl_Clock_TimerProxy_startup__E                                
UNDEFED   ti_sysbios_knl_Clock_TimerProxy_startup__E__mangled__                     
1001ba21  ti_sysbios_knl_Clock_addI__E                                              
1001b579  ti_sysbios_knl_Clock_construct                                            
1001b3ed  ti_sysbios_knl_Clock_create                                               
1001c2b5  ti_sysbios_knl_Clock_delete                                               
1001c2b9  ti_sysbios_knl_Clock_destruct                                             
00005c0d  ti_sysbios_knl_Clock_doTick__I                                            
000054e9  ti_sysbios_knl_Clock_getTicksUntilInterrupt__E                            
1001b6d9  ti_sysbios_knl_Clock_getTicks__E                                          
1001c191  ti_sysbios_knl_Clock_getTimerHandle__E                                    
1001be67  ti_sysbios_knl_Clock_logTick__E                                           
1001c2bd  ti_sysbios_knl_Clock_removeI__E                                           
1001bebd  ti_sysbios_knl_Clock_scheduleNextTick__E                                  
000004c8  ti_sysbios_knl_Clock_serviceMargin__C                                     
1001c2c1  ti_sysbios_knl_Clock_setTimeout__E                                        
1001a719  ti_sysbios_knl_Clock_startI__E                                            
1001bfe3  ti_sysbios_knl_Clock_start__E                                             
00005755  ti_sysbios_knl_Clock_stop__E                                              
00000510  ti_sysbios_knl_Clock_tickMode__C                                          
00006360  ti_sysbios_knl_Clock_tickPeriod__C                                        
00006364  ti_sysbios_knl_Clock_triggerClock__C                                      
000047a3  ti_sysbios_knl_Clock_triggerFunc__I                                       
1001a80d  ti_sysbios_knl_Clock_walkQueueDynamic__E                                  
00003215  ti_sysbios_knl_Clock_workFuncDynamic__E                                   
1001a885  ti_sysbios_knl_Clock_workFunc__E                                          
00006368  ti_sysbios_knl_Idle_funcList__A                                           
00000478  ti_sysbios_knl_Idle_funcList__C                                           
1001c20b  ti_sysbios_knl_Idle_loop__E                                               
1001bd09  ti_sysbios_knl_Idle_run__E                                                
000005d4  ti_sysbios_knl_Mailbox_Instance_State_dataQue__O                          
000005d8  ti_sysbios_knl_Mailbox_Instance_State_dataSem__O                          
000005dc  ti_sysbios_knl_Mailbox_Instance_State_freeQue__O                          
000005e0  ti_sysbios_knl_Mailbox_Instance_State_freeSem__O                          
1001a9dd  ti_sysbios_knl_Mailbox_Instance_finalize__E                               
1001a001  ti_sysbios_knl_Mailbox_Instance_init__E                                   
20002cf0  ti_sysbios_knl_Mailbox_Module__root__V                                    
1001b251  ti_sysbios_knl_Mailbox_Module_startup__E                                  
00000390  ti_sysbios_knl_Mailbox_Object__DESC__C                                    
0000013c  ti_sysbios_knl_Mailbox_Object__PARAMS__C                                  
000004cc  ti_sysbios_knl_Mailbox_Object__count__C                                   
1001bd29  ti_sysbios_knl_Mailbox_Object__delete__S                                  
1001bed9  ti_sysbios_knl_Mailbox_Object__destruct__S                                
1001b89d  ti_sysbios_knl_Mailbox_Object__get__S                                     
000004d0  ti_sysbios_knl_Mailbox_Object__table__C                                   
1001c19d  ti_sysbios_knl_Mailbox_Params__init__S                                    
1001af81  ti_sysbios_knl_Mailbox_construct                                          
1001abdd  ti_sysbios_knl_Mailbox_create                                             
1001c2c5  ti_sysbios_knl_Mailbox_delete                                             
1001c2c9  ti_sysbios_knl_Mailbox_destruct                                           
1001a8fd  ti_sysbios_knl_Mailbox_pend__E                                            
1001b8c9  ti_sysbios_knl_Mailbox_postInit__I                                        
1001a591  ti_sysbios_knl_Mailbox_post__E                                            
1001c22b  ti_sysbios_knl_Queue_Instance_init__E                                     
20002cf8  ti_sysbios_knl_Queue_Module__root__V                                      
000003b0  ti_sysbios_knl_Queue_Object__DESC__C                                      
00000460  ti_sysbios_knl_Queue_Object__PARAMS__C                                    
000004d4  ti_sysbios_knl_Queue_Object__count__C                                     
1001bd49  ti_sysbios_knl_Queue_Object__delete__S                                    
1001bef5  ti_sysbios_knl_Queue_Object__destruct__S                                  
1001bd69  ti_sysbios_knl_Queue_Object__get__S                                       
000004d8  ti_sysbios_knl_Queue_Object__table__C                                     
1001b8f5  ti_sysbios_knl_Queue_construct                                            
1001b921  ti_sysbios_knl_Queue_create                                               
1001c2cd  ti_sysbios_knl_Queue_delete                                               
1001c1a9  ti_sysbios_knl_Queue_dequeue__E                                           
1001c2d1  ti_sysbios_knl_Queue_destruct                                             
1001c231  ti_sysbios_knl_Queue_elemClear__E                                         
1001c113  ti_sysbios_knl_Queue_empty__E                                             
1001c1b5  ti_sysbios_knl_Queue_enqueue__E                                           
1001bf11  ti_sysbios_knl_Queue_get__E                                               
1001c2d5  ti_sysbios_knl_Queue_head__E                                              
1001c2d9  ti_sysbios_knl_Queue_next__E                                              
1001bf2d  ti_sysbios_knl_Queue_put__E                                               
1001c121  ti_sysbios_knl_Queue_remove__E                                            
000005e4  ti_sysbios_knl_Semaphore_Instance_State_pendQ__O                          
1001c0c5  ti_sysbios_knl_Semaphore_Instance_finalize__E                             
1001bb01  ti_sysbios_knl_Semaphore_Instance_init__E                                 
20002d00  ti_sysbios_knl_Semaphore_Module__root__V                                  
000003d0  ti_sysbios_knl_Semaphore_Object__DESC__C                                  
000002ac  ti_sysbios_knl_Semaphore_Object__PARAMS__C                                
1001bb25  ti_sysbios_knl_Semaphore_Object__delete__S                                
1001bd89  ti_sysbios_knl_Semaphore_Object__destruct__S                              
1001c1c1  ti_sysbios_knl_Semaphore_Params__init__S                                  
1001b709  ti_sysbios_knl_Semaphore_construct                                        
1001b5ad  ti_sysbios_knl_Semaphore_create                                           
1001c2dd  ti_sysbios_knl_Semaphore_delete                                           
1001c2e1  ti_sysbios_knl_Semaphore_destruct                                         
1001b94d  ti_sysbios_knl_Semaphore_pendTimeout__I                                   
1001a0cd  ti_sysbios_knl_Semaphore_pend__E                                          
1001ac41  ti_sysbios_knl_Semaphore_post__E                                          
00005c21  ti_sysbios_knl_Semaphore_reset__E                                         
1001bf9b  ti_sysbios_knl_Swi_Instance_finalize__E                                   
1001aca5  ti_sysbios_knl_Swi_Instance_init__E                                       
20002b98  ti_sysbios_knl_Swi_Module_State_0_readyQ__A                               
20002d08  ti_sysbios_knl_Swi_Module__root__V                                        
200001c8  ti_sysbios_knl_Swi_Module__state__V                                       
1001c237  ti_sysbios_knl_Swi_Module_startup__E                                      
000003f0  ti_sysbios_knl_Swi_Object__DESC__C                                        
000001f4  ti_sysbios_knl_Swi_Object__PARAMS__C                                      
000004dc  ti_sysbios_knl_Swi_Object__count__C                                       
1001bda9  ti_sysbios_knl_Swi_Object__delete__S                                      
1001bf49  ti_sysbios_knl_Swi_Object__destruct__S                                    
1001b979  ti_sysbios_knl_Swi_Object__get__S                                         
000004e0  ti_sysbios_knl_Swi_Object__table__C                                       
20002bc8  ti_sysbios_knl_Swi_Object__table__V                                       
1001c1cd  ti_sysbios_knl_Swi_Params__init__S                                        
1001b085  ti_sysbios_knl_Swi_construct                                              
1001ad05  ti_sysbios_knl_Swi_create                                                 
1001c2e5  ti_sysbios_knl_Swi_delete                                                 
1001c2e9  ti_sysbios_knl_Swi_destruct                                               
1001c0d5  ti_sysbios_knl_Swi_disable__E                                             
1001c0e5  ti_sysbios_knl_Swi_enabled__E                                             
00005d99  ti_sysbios_knl_Swi_getTrigger__E                                          
000004e4  ti_sysbios_knl_Swi_numPriorities__C                                       
00005ad1  ti_sysbios_knl_Swi_or__E                                                  
1001c2ed  ti_sysbios_knl_Swi_postInit__I                                            
1001b321  ti_sysbios_knl_Swi_post__E                                                
1001ad61  ti_sysbios_knl_Swi_restoreHwi__E                                          
1001b5e1  ti_sysbios_knl_Swi_restore__E                                             
1001b0d5  ti_sysbios_knl_Swi_runLoop__I                                             
1001afd9  ti_sysbios_knl_Swi_run__I                                                 
1001b031  ti_sysbios_knl_Swi_schedule__I                                            
1001c23d  ti_sysbios_knl_Swi_startup__E                                             
20001d58  ti_sysbios_knl_Task_Instance_State_0_stack__A                             
1001a4fd  ti_sysbios_knl_Task_Instance_finalize__E                                  
1001a25d  ti_sysbios_knl_Task_Instance_init__E                                      
20002d40  ti_sysbios_knl_Task_Module_State_0_idleTask__A                            
20002c18  ti_sysbios_knl_Task_Module_State_0_readyQ__A                              
000005e8  ti_sysbios_knl_Task_Module_State_inactiveQ__O                             
20002d10  ti_sysbios_knl_Task_Module__root__V                                       
20000100  ti_sysbios_knl_Task_Module__state__V                                      
1001adbd  ti_sysbios_knl_Task_Module_startup__E                                     
00000410  ti_sysbios_knl_Task_Object__DESC__C                                       
00000100  ti_sysbios_knl_Task_Object__PARAMS__C                                     
000004e8  ti_sysbios_knl_Task_Object__count__C                                      
1001bdc9  ti_sysbios_knl_Task_Object__delete__S                                     
1001bf65  ti_sysbios_knl_Task_Object__destruct__S                                   
1001bde9  ti_sysbios_knl_Task_Object__get__S                                        
000004ec  ti_sysbios_knl_Task_Object__table__C                                      
20002ac8  ti_sysbios_knl_Task_Object__table__V                                      
1001c1d9  ti_sysbios_knl_Task_Params__init__S                                       
1001c2f1  ti_sysbios_knl_Task_SupportProxy_Module__startupDone__S                   
UNDEFED   ti_sysbios_knl_Task_SupportProxy_Module__startupDone__S__mangled__        
1001c2f5  ti_sysbios_knl_Task_SupportProxy_getStackAlignment__E                     
UNDEFED   ti_sysbios_knl_Task_SupportProxy_getStackAlignment__E__mangled__          
1001c2f9  ti_sysbios_knl_Task_SupportProxy_start__E                                 
UNDEFED   ti_sysbios_knl_Task_SupportProxy_start__E__mangled__                      
1001c2fd  ti_sysbios_knl_Task_SupportProxy_swap__E                                  
UNDEFED   ti_sysbios_knl_Task_SupportProxy_swap__E__mangled__                       
000004f0  ti_sysbios_knl_Task_allBlockedFunc__C                                     
1001b365  ti_sysbios_knl_Task_allBlockedFunction__I                                 
1001b615  ti_sysbios_knl_Task_blockI__E                                             
1001b125  ti_sysbios_knl_Task_construct                                             
1001ae19  ti_sysbios_knl_Task_create                                                
000004f4  ti_sysbios_knl_Task_defaultStackHeap__C                                   
000004f8  ti_sysbios_knl_Task_defaultStackSize__C                                   
1001c301  ti_sysbios_knl_Task_delete                                                
1001c305  ti_sysbios_knl_Task_destruct                                              
1001c0f5  ti_sysbios_knl_Task_disable__E                                            
1001c243  ti_sysbios_knl_Task_enable__E                                             
1001be09  ti_sysbios_knl_Task_enter__I                                              
1001b429  ti_sysbios_knl_Task_exit__E                                               
0000050e  ti_sysbios_knl_Task_initStackFlag__C                                      
000004fc  ti_sysbios_knl_Task_numConstructedTasks__C                                
1001a615  ti_sysbios_knl_Task_postInit__I                                           
1001b739  ti_sysbios_knl_Task_processVitalTaskFlag__I                               
1001be29  ti_sysbios_knl_Task_restoreHwi__E                                         
1001ba49  ti_sysbios_knl_Task_restore__E                                            
1001b175  ti_sysbios_knl_Task_schedule__I                                           
1001c1e5  ti_sysbios_knl_Task_self__E                                               
1001bf81  ti_sysbios_knl_Task_sleepTimeout__I                                       
1001a96d  ti_sysbios_knl_Task_sleep__E                                              
1001ae75  ti_sysbios_knl_Task_startCore__E                                          
1001c309  ti_sysbios_knl_Task_startup__E                                            
1001ca71  ti_sysbios_knl_Task_swapReturn                                            
1001b9a5  ti_sysbios_knl_Task_unblockI__E                                           
1001bfb5  ti_sysbios_knl_Task_unblock__E                                            
1001b3a9  ti_sysbios_knl_Task_yield__E                                              
00000590  ti_sysbios_rom_ROM_AONRTCChannelEnable                                    
00000594  ti_sysbios_rom_ROM_AONRTCCompareValueSet                                  
00000598  ti_sysbios_rom_ROM_AONRTCCurrentCompareValueGet                           
0000059c  ti_sysbios_rom_ROM_AONRTCEventClear                                       
000005a0  ti_sysbios_rom_ROM_ti_sysbios_family_arm_cc26xx_Timer_getCount64__E       
000005a4  ti_sysbios_rom_ROM_ti_sysbios_family_arm_cc26xx_Timer_getCurrentTick__E   
000005a8  ti_sysbios_rom_ROM_ti_sysbios_family_arm_cc26xx_Timer_getMaxTicks__E      
000005ac  ti_sysbios_rom_ROM_ti_sysbios_family_arm_cc26xx_Timer_initDevice__I       
000005b0  ti_sysbios_rom_ROM_ti_sysbios_family_arm_cc26xx_Timer_setNextTick__E      
000005b4  ti_sysbios_rom_ROM_ti_sysbios_family_arm_cc26xx_Timer_setThreshold__I     
000005b8  ti_sysbios_rom_ROM_ti_sysbios_family_arm_cc26xx_Timer_start__E            
000005bc  ti_sysbios_rom_ROM_ti_sysbios_family_arm_cc26xx_TimestampProvider_get32__E
000005c0  ti_sysbios_rom_ROM_xdc_runtime_Startup_getState__I                        
000005c4  ti_sysbios_rom_ROM_xdc_runtime_System_SupportProxy_abort__E               
000005c8  ti_sysbios_rom_ROM_xdc_runtime_System_SupportProxy_exit__E                
000050c3  ti_sysbios_rom_cortexm_cc26xx_CC26xx_badRomRevision__E                    
00005ae9  ti_sysbios_rom_cortexm_cc26xx_CC26xx_checkRevision__E                     
1001ca9b  ti_sysbios_rom_cortexm_cc26xx_CC26xx_getRevision__E                       
20001958  timerStack                                                                
20002800  timerStruct                                                               
00004129  timer_fxn                                                                 
000020a9  timer_task                                                                
000062f4  uartCC26XXHWAttrs                                                         
20002230  uartCC26XXObjects                                                         
00006354  udmaHWAttrs                                                               
200028c4  udmaObjects                                                               
00003aad  write_lora                                                                
00000524  xdc_runtime_Assert_E_assertFailed__C                                      
1001c5a9  xdc_runtime_Assert_raise__I                                               
1001c6ed  xdc_runtime_Core_assignLabel__I                                           
1001c5f1  xdc_runtime_Core_assignParams__I                                          
1001c639  xdc_runtime_Core_constructObject__I                                       
1001c405  xdc_runtime_Core_createObject__I                                          
1001c4f9  xdc_runtime_Core_deleteObject__I                                          
1001c7a1  xdc_runtime_Core_destructObject__I                                        
00000528  xdc_runtime_Error_E_memory__C                                             
1001c7b9  xdc_runtime_Error_check__E                                                
1001c841  xdc_runtime_Error_init__E                                                 
0000052c  xdc_runtime_Error_policyFxn__C                                            
1001c487  xdc_runtime_Error_policySpin__E                                           
0000058c  xdc_runtime_Error_policy__C                                               
1001c769  xdc_runtime_Error_raiseX__E                                               
1001c885  xdc_runtime_Gate_enterSystem__E                                           
1001c879  xdc_runtime_Gate_leaveSystem__E                                           
00000530  xdc_runtime_IGateProvider_Interface__BASE__C                              
00000534  xdc_runtime_IHeap_Interface__BASE__C                                      
00000538  xdc_runtime_IModule_Interface__BASE__C                                    
UNDEFED   xdc_runtime_Main_Module_GateProxy_Handle__label__S                        
UNDEFED   xdc_runtime_Main_Module_GateProxy_Object__delete__S                       
UNDEFED   xdc_runtime_Main_Module_GateProxy_query__E                                
0000053c  xdc_runtime_Main_Module__diagsEnabled__C                                  
00000540  xdc_runtime_Main_Module__diagsIncluded__C                                 
00000544  xdc_runtime_Main_Module__diagsMask__C                                     
00000584  xdc_runtime_Main_Module__id__C                                            
1001bc89  xdc_runtime_Memory_HeapProxy_Handle__label__S                             
UNDEFED   xdc_runtime_Memory_HeapProxy_Handle__label__S__mangled__                  
1001bca9  xdc_runtime_Memory_HeapProxy_Object__delete__S                            
UNDEFED   xdc_runtime_Memory_HeapProxy_Object__delete__S__mangled__                 
1001c889  xdc_runtime_Memory_HeapProxy_alloc__E                                     
1001c88d  xdc_runtime_Memory_HeapProxy_free__E                                      
00000586  xdc_runtime_Memory_Module__id__C                                          
20000200  xdc_runtime_Memory_Module__state__V                                       
1001c489  xdc_runtime_Memory_alloc__E                                               
1001c84d  xdc_runtime_Memory_calloc__E                                              
00000548  xdc_runtime_Memory_defaultHeapInstance__C                                 
1001c801  xdc_runtime_Memory_free__E                                                
1001c859  xdc_runtime_Memory_getMaxDefaultTypeAlign__E                              
1001c785  xdc_runtime_Memory_valloc__E                                              
200001f0  xdc_runtime_Startup_Module__state__V                                      
00000001  xdc_runtime_Startup__EXECFXN__C                                           
00000001  xdc_runtime_Startup__RESETFXN__C                                          
0000054c  xdc_runtime_Startup_execImpl__C                                           
1001c559  xdc_runtime_Startup_exec__E                                               
00005c33  xdc_runtime_Startup_exec__I                                               
00006340  xdc_runtime_Startup_firstFxns__A                                          
00000514  xdc_runtime_Startup_firstFxns__C                                          
000044e9  xdc_runtime_Startup_getState__I                                           
0000051c  xdc_runtime_Startup_lastFxns__C                                           
00000550  xdc_runtime_Startup_maxPasses__C                                          
00005da5  xdc_runtime_Startup_reset__I                                              
00005db1  xdc_runtime_Startup_rtsDone__E                                            
0000630c  xdc_runtime_Startup_sfxnRts__A                                            
00000554  xdc_runtime_Startup_sfxnRts__C                                            
000061c8  xdc_runtime_Startup_sfxnTab__A                                            
00000558  xdc_runtime_Startup_sfxnTab__C                                            
0000055c  xdc_runtime_Startup_startModsFxn__C                                       
1001c30d  xdc_runtime_Startup_startMods__I                                          
00000560  xdc_runtime_SysCallback_abortFxn__C                                       
1001c811  xdc_runtime_SysCallback_abort__E                                          
00005437  xdc_runtime_SysCallback_defaultAbort                                      
000055db  xdc_runtime_SysCallback_defaultExit                                       
00000564  xdc_runtime_SysCallback_exitFxn__C                                        
1001c821  xdc_runtime_SysCallback_exit__E                                           
200025ec  xdc_runtime_SysMin_Module_State_0_outbuf__A                               
20002c90  xdc_runtime_SysMin_Module__state__V                                       
00005775  xdc_runtime_SysMin_Module_startup__E                                      
000053d9  xdc_runtime_SysMin_abort__E                                               
0000636c  xdc_runtime_SysMin_bufSize__C                                             
000058d1  xdc_runtime_SysMin_exit__E                                                
00006374  xdc_runtime_SysMin_flushAtExit__C                                         
00004bfd  xdc_runtime_SysMin_flush__E                                               
00006370  xdc_runtime_SysMin_outputFunc__C                                          
000056b3  xdc_runtime_SysMin_output__I                                              
00005055  xdc_runtime_SysMin_putch__E                                               
1001bbe9  xdc_runtime_System_Module_GateProxy_Handle__label__S                      
UNDEFED   xdc_runtime_System_Module_GateProxy_Handle__label__S__mangled__           
1001bc09  xdc_runtime_System_Module_GateProxy_Object__delete__S                     
UNDEFED   xdc_runtime_System_Module_GateProxy_Object__delete__S__mangled__          
1001c891  xdc_runtime_System_Module_GateProxy_enter__E                              
1001c895  xdc_runtime_System_Module_GateProxy_leave__E                              
1001c269  xdc_runtime_System_Module_GateProxy_query__E                              
UNDEFED   xdc_runtime_System_Module_GateProxy_query__E__mangled__                   
20002d18  xdc_runtime_System_Module_State_0_atexitHandlers__A                       
200001f8  xdc_runtime_System_Module__state__V                                       
1001c87f  xdc_runtime_System_Module_startup__E                                      
000053d9  xdc_runtime_System_SupportProxy_abort__E                                  
000058d1  xdc_runtime_System_SupportProxy_exit__E                                   
00004bfd  xdc_runtime_System_SupportProxy_flush__E                                  
00005055  xdc_runtime_System_SupportProxy_putch__E                                  
00000568  xdc_runtime_System_abortFxn__C                                            
1001c899  xdc_runtime_System_abortSpin__E                                           
1001c749  xdc_runtime_System_abort__E                                               
1001c681  xdc_runtime_System_atexit__E                                              
0000056c  xdc_runtime_System_exitFxn__C                                             
1001c89b  xdc_runtime_System_exitSpin__E                                            
1001c7d1  xdc_runtime_System_exit__E                                                
00000570  xdc_runtime_System_maxAtexitHandlers__C                                   
1001c6b9  xdc_runtime_System_processAtExit__E                                       
00000588  xdc_runtime_Text_charCnt__C                                               
00006378  xdc_runtime_Text_charTab__A                                               
00000574  xdc_runtime_Text_charTab__C                                               
1001c71d  xdc_runtime_Text_cordText__E                                              
0000058a  xdc_runtime_Text_isLoaded__C                                              
00000578  xdc_runtime_Text_nameEmpty__C                                             
0000057c  xdc_runtime_Text_nameStatic__C                                            
00000580  xdc_runtime_Text_nameUnknown__C                                           
1001c7e9  xdc_runtime_Text_ropeText__E                                              
1001c831  xdc_runtime_Timestamp_SupportProxy_get32__E                               
00005ced  xdc_runtime_Timestamp_SupportProxy_get32__E__mangled__                    
1001b9d1  xdc_runtime_Timestamp_SupportProxy_get64__E                               
UNDEFED   xdc_runtime_Timestamp_SupportProxy_get64__E__mangled__                    
1001c12f  xdc_runtime_Timestamp_SupportProxy_getFreq__E                             
UNDEFED   xdc_runtime_Timestamp_SupportProxy_getFreq__E__mangled__                  
1001c831  xdc_runtime_Timestamp_get32__E                                            
UNDEFED   xdc_runtime_Timestamp_get32__E                                            
1001b9d1  xdc_runtime_Timestamp_get64__E                                            
UNDEFED   xdc_runtime_Timestamp_get64__E                                            
1001c12f  xdc_runtime_Timestamp_getFreq__E                                          
UNDEFED   xdc_runtime_Timestamp_getFreq__E                                          


GLOBAL SYMBOLS: SORTED BY Symbol Address 

address   name                                                                      
-------   ----                                                                      
00000000  __ASM__                                                                   
00000000  ti_sysbios_family_arm_m3_Hwi_resetVectors                                 
00000001  xdc_runtime_Startup__EXECFXN__C                                           
00000001  xdc_runtime_Startup__RESETFXN__C                                          
00000083  __ISA__                                                                   
00000095  __PLAT__                                                                  
000000bc  __TARG__                                                                  
000000e1  __TRDR__                                                                  
00000100  ti_sysbios_knl_Task_Object__PARAMS__C                                     
0000013c  ti_sysbios_knl_Mailbox_Object__PARAMS__C                                  
00000170  ti_sysbios_family_arm_m3_Hwi_Object__PARAMS__C                            
000001a0  ti_sysbios_hal_Hwi_Object__PARAMS__C                                      
000001cc  ti_sysbios_heaps_HeapMem_Module__FXNS__C                                  
000001f4  ti_sysbios_knl_Swi_Object__PARAMS__C                                      
0000021c  ti_sysbios_gates_GateHwi_Module__FXNS__C                                  
00000240  ti_sysbios_gates_GateMutex_Module__FXNS__C                                
00000264  ti_sysbios_heaps_HeapMem_Object__PARAMS__C                                
00000288  ti_sysbios_knl_Clock_Object__PARAMS__C                                    
000002ac  ti_sysbios_knl_Semaphore_Object__PARAMS__C                                
000002d0  ti_sysbios_family_arm_m3_Hwi_Object__DESC__C                              
000002f0  ti_sysbios_gates_GateHwi_Object__DESC__C                                  
00000300  __STACK_SIZE                                                              
00000310  ti_sysbios_gates_GateMutex_Object__DESC__C                                
00000330  ti_sysbios_hal_Hwi_Object__DESC__C                                        
00000350  ti_sysbios_heaps_HeapMem_Object__DESC__C                                  
00000370  ti_sysbios_knl_Clock_Object__DESC__C                                      
00000390  ti_sysbios_knl_Mailbox_Object__DESC__C                                    
000003b0  ti_sysbios_knl_Queue_Object__DESC__C                                      
000003d0  ti_sysbios_knl_Semaphore_Object__DESC__C                                  
000003f0  ti_sysbios_knl_Swi_Object__DESC__C                                        
00000410  ti_sysbios_knl_Task_Object__DESC__C                                       
00000430  ti_sysbios_gates_GateHwi_Object__PARAMS__C                                
00000448  ti_sysbios_gates_GateMutex_Object__PARAMS__C                              
00000460  ti_sysbios_knl_Queue_Object__PARAMS__C                                    
00000478  ti_sysbios_knl_Idle_funcList__C                                           
00000484  ti_sysbios_family_arm_cc26xx_Timer_startupNeeded__C                       
00000488  ti_sysbios_family_arm_m3_Hwi_E_alreadyDefined__C                          
0000048c  ti_sysbios_family_arm_m3_Hwi_E_hwiLimitExceeded__C                        
00000490  ti_sysbios_family_arm_m3_Hwi_NUM_INTERRUPTS__C                            
00000494  ti_sysbios_family_arm_m3_Hwi_Object__count__C                             
00000498  ti_sysbios_family_arm_m3_Hwi_Object__table__C                             
0000049c  ti_sysbios_family_arm_m3_Hwi_ccr__C                                       
000004a0  ti_sysbios_family_arm_m3_Hwi_excHandlerFunc__C                            
000004a4  ti_sysbios_family_arm_m3_Hwi_nullIsrFunc__C                               
000004a8  ti_sysbios_family_arm_m3_Hwi_numSparseInterrupts__C                       
000004ac  ti_sysbios_family_arm_m3_Hwi_priGroup__C                                  
000004b0  ti_sysbios_family_arm_m3_TaskSupport_stackAlignment__C                    
000004b4  ti_sysbios_heaps_HeapMem_E_memory__C                                      
000004b8  ti_sysbios_heaps_HeapMem_Module__gateObj__C                               
000004bc  ti_sysbios_heaps_HeapMem_Object__count__C                                 
000004c0  ti_sysbios_heaps_HeapMem_Object__table__C                                 
000004c4  ti_sysbios_heaps_HeapMem_reqAlign__C                                      
000004c8  ti_sysbios_knl_Clock_serviceMargin__C                                     
000004cc  ti_sysbios_knl_Mailbox_Object__count__C                                   
000004d0  ti_sysbios_knl_Mailbox_Object__table__C                                   
000004d4  ti_sysbios_knl_Queue_Object__count__C                                     
000004d8  ti_sysbios_knl_Queue_Object__table__C                                     
000004dc  ti_sysbios_knl_Swi_Object__count__C                                       
000004e0  ti_sysbios_knl_Swi_Object__table__C                                       
000004e4  ti_sysbios_knl_Swi_numPriorities__C                                       
000004e8  ti_sysbios_knl_Task_Object__count__C                                      
000004ec  ti_sysbios_knl_Task_Object__table__C                                      
000004f0  ti_sysbios_knl_Task_allBlockedFunc__C                                     
000004f4  ti_sysbios_knl_Task_defaultStackHeap__C                                   
000004f8  ti_sysbios_knl_Task_defaultStackSize__C                                   
000004fc  ti_sysbios_knl_Task_numConstructedTasks__C                                
00000502  ti_sysbios_family_arm_cc26xx_Timer_Module__id__C                          
00000504  ti_sysbios_family_arm_cc26xx_TimestampProvider_useClockTimer__C           
00000506  ti_sysbios_family_arm_m3_Hwi_Module__id__C                                
00000508  ti_sysbios_gates_GateHwi_Module__id__C                                    
0000050a  ti_sysbios_gates_GateMutex_Module__id__C                                  
0000050c  ti_sysbios_heaps_HeapMem_Module__id__C                                    
0000050e  ti_sysbios_knl_Task_initStackFlag__C                                      
00000510  ti_sysbios_knl_Clock_tickMode__C                                          
00000514  xdc_runtime_Startup_firstFxns__C                                          
0000051c  xdc_runtime_Startup_lastFxns__C                                           
00000524  xdc_runtime_Assert_E_assertFailed__C                                      
00000528  xdc_runtime_Error_E_memory__C                                             
0000052c  xdc_runtime_Error_policyFxn__C                                            
00000530  xdc_runtime_IGateProvider_Interface__BASE__C                              
00000534  xdc_runtime_IHeap_Interface__BASE__C                                      
00000538  xdc_runtime_IModule_Interface__BASE__C                                    
0000053c  xdc_runtime_Main_Module__diagsEnabled__C                                  
00000540  xdc_runtime_Main_Module__diagsIncluded__C                                 
00000544  xdc_runtime_Main_Module__diagsMask__C                                     
00000548  xdc_runtime_Memory_defaultHeapInstance__C                                 
0000054c  xdc_runtime_Startup_execImpl__C                                           
00000550  xdc_runtime_Startup_maxPasses__C                                          
00000554  xdc_runtime_Startup_sfxnRts__C                                            
00000558  xdc_runtime_Startup_sfxnTab__C                                            
0000055c  xdc_runtime_Startup_startModsFxn__C                                       
00000560  xdc_runtime_SysCallback_abortFxn__C                                       
00000564  xdc_runtime_SysCallback_exitFxn__C                                        
00000568  xdc_runtime_System_abortFxn__C                                            
0000056c  xdc_runtime_System_exitFxn__C                                             
00000570  xdc_runtime_System_maxAtexitHandlers__C                                   
00000574  xdc_runtime_Text_charTab__C                                               
00000578  xdc_runtime_Text_nameEmpty__C                                             
0000057c  xdc_runtime_Text_nameStatic__C                                            
00000580  xdc_runtime_Text_nameUnknown__C                                           
00000584  xdc_runtime_Main_Module__id__C                                            
00000586  xdc_runtime_Memory_Module__id__C                                          
00000588  xdc_runtime_Text_charCnt__C                                               
0000058a  xdc_runtime_Text_isLoaded__C                                              
0000058c  xdc_runtime_Error_policy__C                                               
00000590  ti_sysbios_rom_ROM_AONRTCChannelEnable                                    
00000594  ti_sysbios_rom_ROM_AONRTCCompareValueSet                                  
00000598  ti_sysbios_rom_ROM_AONRTCCurrentCompareValueGet                           
0000059c  ti_sysbios_rom_ROM_AONRTCEventClear                                       
000005a0  ti_sysbios_rom_ROM_ti_sysbios_family_arm_cc26xx_Timer_getCount64__E       
000005a4  ti_sysbios_rom_ROM_ti_sysbios_family_arm_cc26xx_Timer_getCurrentTick__E   
000005a8  ti_sysbios_rom_ROM_ti_sysbios_family_arm_cc26xx_Timer_getMaxTicks__E      
000005ac  ti_sysbios_rom_ROM_ti_sysbios_family_arm_cc26xx_Timer_initDevice__I       
000005b0  ti_sysbios_rom_ROM_ti_sysbios_family_arm_cc26xx_Timer_setNextTick__E      
000005b4  ti_sysbios_rom_ROM_ti_sysbios_family_arm_cc26xx_Timer_setThreshold__I     
000005b8  ti_sysbios_rom_ROM_ti_sysbios_family_arm_cc26xx_Timer_start__E            
000005bc  ti_sysbios_rom_ROM_ti_sysbios_family_arm_cc26xx_TimestampProvider_get32__E
000005c0  ti_sysbios_rom_ROM_xdc_runtime_Startup_getState__I                        
000005c4  ti_sysbios_rom_ROM_xdc_runtime_System_SupportProxy_abort__E               
000005c8  ti_sysbios_rom_ROM_xdc_runtime_System_SupportProxy_exit__E                
000005cc  ti_sysbios_gates_GateMutex_Instance_State_sem__O                          
000005d0  ti_sysbios_knl_Clock_Module_State_clockQ__O                               
000005d4  ti_sysbios_knl_Mailbox_Instance_State_dataQue__O                          
000005d8  ti_sysbios_knl_Mailbox_Instance_State_dataSem__O                          
000005dc  ti_sysbios_knl_Mailbox_Instance_State_freeQue__O                          
000005e0  ti_sysbios_knl_Mailbox_Instance_State_freeSem__O                          
000005e4  ti_sysbios_knl_Semaphore_Instance_State_pendQ__O                          
000005e8  ti_sysbios_knl_Task_Module_State_inactiveQ__O                             
000005ed  HOSTwrite                                                                 
00000639  HOSTunlink                                                                
00000671  HOSTtime64                                                                
000006bf  HOSTtime                                                                  
000006f9  HOSTrename                                                                
00000757  HOSTread                                                                  
000007a3  HOSTopen                                                                  
000007f5  HOSTlseek                                                                 
00000851  HOSTgetenv                                                                
0000088f  HOSTclose                                                                 
000008c7  HOSTclock                                                                 
00000911  Power_sleep                                                               
00000b39  NOROM_SysCtrlSetRechargeBeforePowerDown                                   
00000d3d  __aeabi_uldivmod                                                          
00001101  PIN_init                                                                  
000012c5  UARTCC26XX_open                                                           
00001455  PowerCC26XX_doCalibrate                                                   
00001739  SPICC26XXDMA_open                                                         
00001881  NOROM_SetupAfterColdResetWakeupFromShutDownCfg3                           
000019b1  Power_init                                                                
00001be5  UARTCC26XX_write                                                          
00001ce1  I2CCC26XX_open                                                            
00001dd9  main                                                                      
00001ed1  SPICC26XXDMA_transferCancel                                               
00001fbd  UARTCC26XX_hwiIntFxn                                                      
000020a9  timer_task                                                                
0000227d  NOROM_SetupAfterColdResetWakeupFromShutDownCfg2                           
00002361  blink_task                                                                
00002439  Power_releaseDependency                                                   
000026b5  Power_setDependency                                                       
00002919  SPICC26XXDMA_transfer                                                     
000029dd  I2CCC26XX_transfer                                                        
00002aa1  NOROM_AUXADCEnableSync                                                    
00002b61  PowerCC26XX_standbyPolicy                                                 
00002c1d  UARTCC26XX_read                                                           
00002d91  set_lora_mode                                                             
00002e41  extFlashErase                                                             
00002eed  ADCCC26XX_open                                                            
00002f91  NOROM_SetupTrimDevice                                                     
00002f91  ti_sysbios_family_arm_cc26xx_Boot_trimDevice                              
000030d9  __TI_auto_init                                                            
00003179  __aeabi_memcpy                                                            
00003179  __aeabi_memcpy4                                                           
00003179  __aeabi_memcpy8                                                           
00003179  memcpy                                                                    
00003215  ti_sysbios_knl_Clock_workFuncDynamic__E                                   
000032ad  NOROM_AUXADCDisable                                                       
00003341  PIN_open                                                                  
00003469  I2CCC26XX_cancel                                                          
00003615  SPICC26XXDMA_control                                                      
0000372d  UARTCC26XX_writeCancel                                                    
000037b9  extFlashOpen                                                              
00003845  ADCCC26XX_convert                                                         
00003941  __aeabi_memclr                                                            
00003941  __aeabi_memclr4                                                           
00003941  __aeabi_memclr8                                                           
00003943  __aeabi_memset                                                            
00003943  __aeabi_memset4                                                           
00003943  __aeabi_memset8                                                           
00003949  memset                                                                    
000039bb  ti_sysbios_BIOS_linkedWithIncorrectBootLibrary__E                         
000039bd  NOROM_SetupAfterColdResetWakeupFromShutDownCfg1                           
00003a35  UARTCC26XX_close                                                          
00003aad  write_lora                                                                
00003b25  PowerCC26XX_auxISR                                                        
00003c0d  ti_sysbios_family_arm_cc26xx_Timer_start__E                               
00003cf5  NOROM_ChipInfo_GetHwRevision                                              
00003d65  UARTCC26XX_readCancel                                                     
00003dd5  bspSpiOpen                                                                
00003e45  NOROM_SetupGetTrimForAmpcompCtrl                                          
00003eb1  PIN_add                                                                   
00003f1d  PowerCC26XX_calibrate                                                     
00003f89  NOROM_SetupGetTrimForAnabypassValue1                                      
00003ff1  NOROM_SysCtrl_DCDC_VoltageConditionalControl                              
00004059  __TI_decompress_lzss                                                      
000040c1  __TI_writemsg                                                             
000040ef  C$$IO$$                                                                   
000040f3  __TI_readmsg                                                              
00004129  timer_fxn                                                                 
00004191  I2CCC26XX_close                                                           
00004259  PowerCC26XX_RCOSC_clockFunc                                               
00004379  NOROM_OSCHF_AttemptToSwitchToXosc                                         
000043d5  NOROM_SysCtrlAdjustRechargeAfterPowerDown                                 
00004431  PIN_remove                                                                
0000448d  UDMACC26XX_open                                                           
000044e9  xdc_runtime_Startup_getState__I                                           
00004545  SPICC26XXDMA_close                                                        
000045f7  ti_sysbios_BIOS_nullFunc__I                                               
000045f9  PowerCC26XX_initiateCalibration                                           
00004651  UARTCC26XX_control                                                        
000046a9  bspSpiClose                                                               
000047a3  ti_sysbios_knl_Clock_triggerFunc__I                                       
000047a5  NOROM_SetupSetCacheModeAccordingToCcfgSetting                             
00004845  NOROM_OSCClockSourceSet                                                   
00004891  UARTCC26XX_swiIntFxn                                                      
00004929  copy_in                                                                   
00004a09  NOROM_ChipInfo_GetChipFamily                                              
00004a51  NOROM_DDI16BitfieldWrite                                                  
00004a99  PIN_setOutputEnable                                                       
00004bb9  ResetISR                                                                  
00004bb9  _c_int00                                                                  
00004bfd  xdc_runtime_SysMin_flush__E                                               
00004bfd  xdc_runtime_System_SupportProxy_flush__E                                  
00004c41  NOROM_DDI16BitfieldRead                                                   
00004c81  extFlashClose                                                             
00004cc1  ADCCC26XX_close                                                           
00004cfd  NOROM_OSC_HPOSCRelativeFrequencyOffsetGet                                 
00004d39  PINCC26XX_getConfig                                                       
00004d75  PIN_setOutputValue                                                        
00004ded  ADCCC26XX_convertRawToMicroVolts                                          
00004e25  ADC_init                                                                  
00004e5d  I2C_init                                                                  
00004e95  PIN_setInterrupt                                                          
00004ecd  SPI_init                                                                  
00004f05  UART_init                                                                 
00004f3d  bspSpiRead                                                                
00004f75  bspSpiWrite                                                               
00004fe5  ti_sysbios_family_arm_cc26xx_Timer_getCurrentTick__E                      
00005055  xdc_runtime_SysMin_putch__E                                               
00005055  xdc_runtime_System_SupportProxy_putch__E                                  
0000508d  UDMACC26XX_close                                                          
000050c3  ti_sysbios_rom_cortexm_cc26xx_CC26xx_badRomRevision__E                    
000050c5  NOROM_AUXADCDisableInputScaling                                           
000050f9  NOROM_OSCHF_SwitchToRcOscTurnOffXosc                                      
0000512d  PIN_setConfig                                                             
00005161  ti_sysbios_family_arm_cc26xx_Timer_initDevice__I                          
000051c7  ti_sysbios_family_arm_cc26xx_Timer_setNextTick__E                         
000051f9  NOROM_SetupSetAonRtcSubSecInc                                             
00005229  Power_releaseConstraint                                                   
00005259  Power_setConstraint                                                       
00005289  SPI_open                                                                  
000052b9  SafeHapiAuxAdiSelect                                                      
00005319  spi_clear_everything                                                      
00005349  ti_sysbios_BIOS_atExitFunc__I                                             
00005379  ti_sysbios_BIOS_startFunc__I                                              
000053a9  ti_sysbios_family_arm_cc26xx_Timer_setThreshold__I                        
000053d9  xdc_runtime_SysMin_abort__E                                               
000053d9  xdc_runtime_System_SupportProxy_abort__E                                  
00005437  xdc_runtime_SysCallback_defaultAbort                                      
00005439  NOROM_DDI32RegWrite                                                       
00005465  NOROM_SetupGetTrimForRadcExtCfg                                           
00005491  PINCC26XX_setMux                                                          
000054bd  ti_sysbios_gates_GateHwi_construct                                        
000054e9  ti_sysbios_knl_Clock_getTicksUntilInterrupt__E                            
00005515  NOROM_AONBatMonTemperatureGetDegC                                         
0000553d  Power_registerNotify                                                      
0000558d  SafeHapiVoid                                                              
000055b5  List_put                                                                  
000055db  xdc_runtime_SysCallback_defaultExit                                       
000055dd  PINCC26XX_getPinCount                                                     
00005625  ti_sysbios_BIOS_registerRTSLock__I                                        
00005649  ti_sysbios_BIOS_removeRTSLock__I                                          
0000566d  ti_sysbios_family_arm_cc26xx_Timer_getMaxTicks__E                         
00005691  NOROM_AUXADCAdjustValueForGainAndOffset                                   
000056b3  xdc_runtime_SysMin_output__I                                              
000056d5  NOROM_SetupGetTrimForXoscHfCtl                                            
000056f5  Power_unregisterNotify                                                    
00005715  ti_sysbios_BIOS_rtsLock__I                                                
00005735  ti_sysbios_family_arm_cc26xx_Timer_dynamicStub__E                         
00005755  ti_sysbios_knl_Clock_stop__E                                              
00005775  xdc_runtime_SysMin_Module_startup__E                                      
00005795  PIN_close                                                                 
000057b3  Power_getTransitionLatency                                                
000057f1  NOROM_AUXADCGetAdjustmentGain                                             
0000580d  NOROM_OSCClockSourceGet                                                   
00005829  NOROM_SetupGetTrimForAmpcompTh2                                           
00005845  NOROM_SetupGetTrimForRcOscLfRtuneCtuneTrim                                
000058b5  set_pin                                                                   
000058d1  xdc_runtime_SysMin_exit__E                                                
000058d1  xdc_runtime_System_SupportProxy_exit__E                                   
000058ed  List_remove                                                               
00005909  NOROM_AONRTCCurrentCompareValueGet                                        
00005921  NOROM_AUXADCGetAdjustmentOffset                                           
00005939  NOROM_ChipInfo_GetPackageType                                             
00005951  NOROM_OSCHF_TurnOnXosc                                                    
00005969  NOROM_SetupGetTrimForAdcShModeEn                                          
00005981  NOROM_SetupGetTrimForAdcShVbufEn                                          
00005999  NOROM_SetupGetTrimForAmpcompTh1                                           
000059b1  NOROM_SetupGetTrimForDblrLoopFilterResetVoltage                           
000059c9  NOROM_SetupGetTrimForRcOscLfIBiasTrim                                     
000059e1  NOROM_SetupGetTrimForXoscLfRegulatorAndCmirrwrRatio                       
000059f9  PIN_getConfig                                                             
00005a11  Power_idleFunc                                                            
00005a29  UARTCC26XX_init                                                           
00005a41  bspSpiFlush                                                               
00005a71  _args_main                                                                
00005a89  __aeabi_lmul                                                              
00005ab9  ti_sysbios_BIOS_rtsUnlock__I                                              
00005ad1  ti_sysbios_knl_Swi_or__E                                                  
00005ae9  ti_sysbios_rom_cortexm_cc26xx_CC26xx_checkRevision__E                     
00005b01  strcpy                                                                    
00005b17  ti_sysbios_BIOS_exitFunc__I                                               
00005b59  NOROM_AONRTCCurrent64BitValueGet                                          
00005b6d  NOROM_AUXADCValueToMicrovolts                                             
00005b81  NOROM_ThisCodeIsBuiltForCC26xxHwRev22AndLater_HaltIfViolated              
00005b95  PIN_getOutputValue                                                        
00005ba9  SPI_Params_init                                                           
00005be5  _register_unlock                                                          
00005beb  _register_lock                                                            
00005bf3  _nop                                                                      
00005bf9  strlen                                                                    
00005c0d  ti_sysbios_knl_Clock_doTick__I                                            
00005c21  ti_sysbios_knl_Semaphore_reset__E                                         
00005c33  xdc_runtime_Startup_exec__I                                               
00005c45  NOROM_AUXADCFlushFifo                                                     
00005c55  NOROM_AUXADCReadFifo                                                      
00005c65  NOROM_SetupGetTrimForXoscHfFastStart                                      
00005c75  NOROM_SetupGetTrimForXoscHfIbiastherm                                     
00005c85  get_pin                                                                   
00005cb5  NOROM_SetupSignExtendVddrTrimValue                                        
00005cc3  NOROM_VIMSModeGet                                                         
00005cd1  SPICC26XXDMA_init                                                         
00005cdf  __TI_decompress_none                                                      
00005ced  ti_sysbios_family_arm_cc26xx_TimestampProvider_get32__E                   
00005ced  xdc_runtime_Timestamp_SupportProxy_get32__E__mangled__                    
00005cfb  NOROM_CPUcpsid                                                            
00005d07  NOROM_CPUcpsie                                                            
00005d13  PIN_registerIntCb                                                         
00005d21  Power_getConstraintMask                                                   
00005d2d  Power_getDependencyCount                                                  
00005d39  __TI_zero_init                                                            
00005d45  receive_fxn                                                               
00005d99  ti_sysbios_knl_Swi_getTrigger__E                                          
00005da5  xdc_runtime_Startup_reset__I                                              
00005db1  xdc_runtime_Startup_rtsDone__E                                            
00005dbd  I2CCC26XX_init                                                            
00005dc7  List_empty                                                                
00005dd1  SPI_close                                                                 
00005ddb  SPI_transfer                                                              
00005de5  UART_write                                                                
00005def  UDMACC26XX_hwiIntFxn                                                      
00005df9  ADCCC26XX_init                                                            
00005e21  ADCCC26XX_control                                                         
00005e27  I2CCC26XX_control                                                         
00005e2d  NOROM_CPUdelay                                                            
00005e33  UARTCC26XX_readPolling                                                    
00005e39  UARTCC26XX_writePolling                                                   
00005e3f  HwiP_disable                                                              
00005e43  List_head                                                                 
00005e47  List_next                                                                 
00005e4f  ti_sysbios_family_arm_cc26xx_Timer_getCount64__E                          
00006004  SPICC26XXDMA_fxnTable                                                     
00006058  resourceDB                                                                
0000612c  ADC_config                                                                
00006168  spiCC26XXDMAHWAttrs                                                       
000061a0  UARTCC26XX_fxnTable                                                       
000061c8  xdc_runtime_Startup_sfxnTab__A                                            
000061f0  SPI_config                                                                
00006214  adcCC26xxHWAttrs                                                          
00006238  I2CCC26XX_fxnTable                                                        
00006258  SPI_defaultParams                                                         
00006278  BoardGpioInitTable                                                        
00006294  I2C_config                                                                
000062ac  UART_config                                                               
000062c4  ADCCC26XX_fxnTable                                                        
000062dc  i2cCC26XXHWAttrs                                                          
000062f4  uartCC26XXHWAttrs                                                         
0000630c  xdc_runtime_Startup_sfxnRts__A                                            
00006320  PowerCC26XX_config                                                        
00006330  UDMACC26XX_config                                                         
00006340  xdc_runtime_Startup_firstFxns__A                                          
0000634c  PINCC26XX_hwAttrs                                                         
00006354  udmaHWAttrs                                                               
00006360  ti_sysbios_knl_Clock_tickPeriod__C                                        
00006364  ti_sysbios_knl_Clock_triggerClock__C                                      
00006368  ti_sysbios_knl_Idle_funcList__A                                           
0000636c  xdc_runtime_SysMin_bufSize__C                                             
00006370  xdc_runtime_SysMin_outputFunc__C                                          
00006374  xdc_runtime_SysMin_flushAtExit__C                                         
00006378  xdc_runtime_Text_charTab__A                                               
00006380  __TI_static_base__                                                        
0000654c  __TI_Handler_Table_Base                                                   
00006558  __TI_Handler_Table_Limit                                                  
000065b8  __TI_CINIT_Base                                                           
00006640  __TI_CINIT_Limit                                                          
0001ffa8  __ccfg                                                                    
1001a001  ti_sysbios_knl_Mailbox_Instance_init__E                                   
1001a0cd  ti_sysbios_knl_Semaphore_pend__E                                          
1001a199  ti_sysbios_heaps_HeapMem_alloc__E                                         
1001a25d  ti_sysbios_knl_Task_Instance_init__E                                      
1001a319  ti_sysbios_family_arm_m3_Hwi_postInit__I                                  
1001a3c9  ti_sysbios_family_arm_m3_Hwi_Instance_init__E                             
1001a469  ti_sysbios_family_arm_cc26xx_Timer_periodicStub__E                        
1001a4fd  ti_sysbios_knl_Task_Instance_finalize__E                                  
1001a591  ti_sysbios_knl_Mailbox_post__E                                            
1001a615  ti_sysbios_knl_Task_postInit__I                                           
1001a699  ti_sysbios_family_arm_m3_Hwi_initNVIC__E                                  
1001a719  ti_sysbios_knl_Clock_startI__E                                            
1001a795  ti_sysbios_heaps_HeapMem_free__E                                          
1001a80d  ti_sysbios_knl_Clock_walkQueueDynamic__E                                  
1001a885  ti_sysbios_knl_Clock_workFunc__E                                          
1001a8fd  ti_sysbios_knl_Mailbox_pend__E                                            
1001a96d  ti_sysbios_knl_Task_sleep__E                                              
1001a9dd  ti_sysbios_knl_Mailbox_Instance_finalize__E                               
1001aa49  ti_sysbios_family_arm_m3_Hwi_dispatchC__I                                 
1001aab1  ti_sysbios_family_arm_m3_Hwi_Object__create__S                            
1001ab15  ti_sysbios_family_arm_m3_Hwi_create                                       
1001ab79  ti_sysbios_hal_Hwi_create                                                 
1001abdd  ti_sysbios_knl_Mailbox_create                                             
1001ac41  ti_sysbios_knl_Semaphore_post__E                                          
1001aca5  ti_sysbios_knl_Swi_Instance_init__E                                       
1001ad05  ti_sysbios_knl_Swi_create                                                 
1001ad61  ti_sysbios_knl_Swi_restoreHwi__E                                          
1001adbd  ti_sysbios_knl_Task_Module_startup__E                                     
1001ae19  ti_sysbios_knl_Task_create                                                
1001ae75  ti_sysbios_knl_Task_startCore__E                                          
1001aed1  ti_sysbios_family_arm_m3_Hwi_Instance_finalize__E                         
1001af29  ti_sysbios_family_arm_m3_Hwi_construct                                    
1001af81  ti_sysbios_knl_Mailbox_construct                                          
1001afd9  ti_sysbios_knl_Swi_run__I                                                 
1001b031  ti_sysbios_knl_Swi_schedule__I                                            
1001b085  ti_sysbios_knl_Swi_construct                                              
1001b0d5  ti_sysbios_knl_Swi_runLoop__I                                             
1001b125  ti_sysbios_knl_Task_construct                                             
1001b175  ti_sysbios_knl_Task_schedule__I                                           
1001b1c1  ti_sysbios_family_arm_m3_Hwi_Module_startup__E                            
1001b209  ti_sysbios_heaps_HeapMem_getStats__E                                      
1001b251  ti_sysbios_knl_Mailbox_Module_startup__E                                  
1001b299  ti_sysbios_family_arm_m3_Hwi_disableInterrupt__E                          
1001b2dd  ti_sysbios_family_arm_m3_Hwi_enableInterrupt__E                           
1001b321  ti_sysbios_knl_Swi_post__E                                                
1001b365  ti_sysbios_knl_Task_allBlockedFunction__I                                 
1001b3a9  ti_sysbios_knl_Task_yield__E                                              
1001b3ed  ti_sysbios_knl_Clock_create                                               
1001b429  ti_sysbios_knl_Task_exit__E                                               
1001b463  ti_sysbios_gates_GateHwi_Instance_init__E                                 
1001b465  ti_sysbios_family_arm_m3_Hwi_getStackInfo__E                              
1001b49d  ti_sysbios_family_arm_m3_TaskSupport_start__E                             
1001b4d5  ti_sysbios_heaps_HeapMem_Instance_init__E                                 
1001b50d  ti_sysbios_knl_Clock_Instance_init__E                                     
1001b545  ti_sysbios_heaps_HeapMem_init__I                                          
1001b579  ti_sysbios_knl_Clock_construct                                            
1001b5ad  ti_sysbios_knl_Semaphore_create                                           
1001b5e1  ti_sysbios_knl_Swi_restore__E                                             
1001b615  ti_sysbios_knl_Task_blockI__E                                             
1001b649  ti_sysbios_gates_GateMutex_Object__create__S                              
1001b679  ti_sysbios_gates_GateMutex_create                                         
1001b6a9  ti_sysbios_gates_GateMutex_enter__E                                       
1001b6d9  ti_sysbios_knl_Clock_getTicks__E                                          
1001b709  ti_sysbios_knl_Semaphore_construct                                        
1001b739  ti_sysbios_knl_Task_processVitalTaskFlag__I                               
1001b769  ti_sysbios_family_arm_cc26xx_Timer_postInit__I                            
1001b795  ti_sysbios_family_arm_cc26xx_Timer_startup__E                             
1001b795  ti_sysbios_knl_Clock_TimerProxy_startup__E                                
1001b7c1  ti_sysbios_family_arm_m3_Hwi_Object__get__S                               
1001b7ed  ti_sysbios_gates_GateMutex_construct                                      
1001b819  ti_sysbios_hal_Hwi_initStack                                              
1001b845  ti_sysbios_heaps_HeapMem_Object__create__S                                
1001b871  ti_sysbios_heaps_HeapMem_Object__get__S                                   
1001b89d  ti_sysbios_knl_Mailbox_Object__get__S                                     
1001b8c9  ti_sysbios_knl_Mailbox_postInit__I                                        
1001b8f5  ti_sysbios_knl_Queue_construct                                            
1001b921  ti_sysbios_knl_Queue_create                                               
1001b94d  ti_sysbios_knl_Semaphore_pendTimeout__I                                   
1001b979  ti_sysbios_knl_Swi_Object__get__S                                         
1001b9a5  ti_sysbios_knl_Task_unblockI__E                                           
1001b9d1  ti_sysbios_family_arm_cc26xx_TimestampProvider_get64__E                   
1001b9d1  xdc_runtime_Timestamp_SupportProxy_get64__E                               
1001b9d1  xdc_runtime_Timestamp_get64__E                                            
1001b9f9  ti_sysbios_hal_Hwi_Instance_init__E                                       
1001ba21  ti_sysbios_knl_Clock_addI__E                                              
1001ba49  ti_sysbios_knl_Task_restore__E                                            
1001ba71  ti_sysbios_family_arm_cc26xx_Timer_Module_startup__E                      
1001ba95  ti_sysbios_gates_GateHwi_Object__create__S                                
1001bab9  ti_sysbios_BIOS_RtsGateProxy_Object__delete__S                            
1001bab9  ti_sysbios_gates_GateMutex_Object__delete__S                              
1001bab9  ti_sysbios_heaps_HeapMem_Module_GateProxy_Object__delete__S               
1001badd  ti_sysbios_knl_Clock_Object__delete__S                                    
1001bb01  ti_sysbios_knl_Semaphore_Instance_init__E                                 
1001bb25  ti_sysbios_knl_Semaphore_Object__delete__S                                
1001bb49  ti_sysbios_family_arm_cc26xx_Timer_Module__startupDone__S                 
1001bb69  ti_sysbios_family_arm_cc26xx_TimestampProvider_Module_startup__E          
1001bb89  ti_sysbios_family_arm_m3_Hwi_Module__startupDone__S                       
1001bba9  ti_sysbios_family_arm_m3_Hwi_Object__delete__S                            
1001bba9  ti_sysbios_hal_Hwi_HwiProxy_Object__delete__S                             
1001bbc9  ti_sysbios_family_arm_m3_Hwi_excHandler__I                                
1001bbe9  ti_sysbios_gates_GateHwi_Handle__label__S                                 
1001bbe9  xdc_runtime_System_Module_GateProxy_Handle__label__S                      
1001bc09  ti_sysbios_gates_GateHwi_Object__delete__S                                
1001bc09  xdc_runtime_System_Module_GateProxy_Object__delete__S                     
1001bc29  ti_sysbios_BIOS_RtsGateProxy_Handle__label__S                             
1001bc29  ti_sysbios_gates_GateMutex_Handle__label__S                               
1001bc29  ti_sysbios_heaps_HeapMem_Module_GateProxy_Handle__label__S                
1001bc49  ti_sysbios_gates_GateMutex_Object__destruct__S                            
1001bc69  ti_sysbios_hal_Hwi_Object__delete__S                                      
1001bc89  ti_sysbios_heaps_HeapMem_Handle__label__S                                 
1001bc89  xdc_runtime_Memory_HeapProxy_Handle__label__S                             
1001bca9  ti_sysbios_heaps_HeapMem_Object__delete__S                                
1001bca9  xdc_runtime_Memory_HeapProxy_Object__delete__S                            
1001bcc9  ti_sysbios_knl_Clock_Module_startup__E                                    
1001bce9  ti_sysbios_knl_Clock_Object__destruct__S                                  
1001bd09  ti_sysbios_knl_Idle_run__E                                                
1001bd29  ti_sysbios_knl_Mailbox_Object__delete__S                                  
1001bd49  ti_sysbios_knl_Queue_Object__delete__S                                    
1001bd69  ti_sysbios_knl_Queue_Object__get__S                                       
1001bd89  ti_sysbios_knl_Semaphore_Object__destruct__S                              
1001bda9  ti_sysbios_knl_Swi_Object__delete__S                                      
1001bdc9  ti_sysbios_knl_Task_Object__delete__S                                     
1001bde9  ti_sysbios_knl_Task_Object__get__S                                        
1001be09  ti_sysbios_knl_Task_enter__I                                              
1001be29  ti_sysbios_knl_Task_restoreHwi__E                                         
1001be49  ti_sysbios_hal_Hwi_HwiProxy_create                                        
1001be67  ti_sysbios_knl_Clock_logTick__E                                           
1001be69  ti_sysbios_family_arm_m3_Hwi_Object__destruct__S                          
1001be85  ti_sysbios_family_arm_m3_Hwi_setPriority__E                               
1001bea1  ti_sysbios_gates_GateMutex_Instance_init__E                               
1001bebd  ti_sysbios_knl_Clock_scheduleNextTick__E                                  
1001bed9  ti_sysbios_knl_Mailbox_Object__destruct__S                                
1001bef5  ti_sysbios_knl_Queue_Object__destruct__S                                  
1001bf11  ti_sysbios_knl_Queue_get__E                                               
1001bf2d  ti_sysbios_knl_Queue_put__E                                               
1001bf49  ti_sysbios_knl_Swi_Object__destruct__S                                    
1001bf65  ti_sysbios_knl_Task_Object__destruct__S                                   
1001bf81  ti_sysbios_knl_Task_sleepTimeout__I                                       
1001bf9b  ti_sysbios_knl_Swi_Instance_finalize__E                                   
1001bf9d  ti_sysbios_gates_GateMutex_leave__E                                       
1001bfb5  ti_sysbios_knl_Task_unblock__E                                            
1001bfcd  ti_sysbios_knl_Clock_Instance_finalize__E                                 
1001bfe3  ti_sysbios_knl_Clock_start__E                                             
1001bff9  ti_sysbios_BIOS_getCpuFreq__E                                             
1001c00d  ti_sysbios_family_arm_m3_Hwi_switchFromBootStack__E                       
1001c021  ti_sysbios_hal_Hwi_Module_startup__E                                      
1001c035  ti_sysbios_BIOS_exit__E                                                   
1001c045  ti_sysbios_BIOS_setThreadType__E                                          
1001c055  ti_sysbios_BIOS_start__E                                                  
1001c065  ti_sysbios_family_arm_m3_Hwi_plug__E                                      
1001c075  ti_sysbios_gates_GateMutex_Instance_finalize__E                           
1001c085  ti_sysbios_hal_Hwi_HwiProxy_Object__create__S                             
1001c095  ti_sysbios_knl_Clock_TimerProxy_getCurrentTick__E                         
1001c0a5  ti_sysbios_knl_Clock_TimerProxy_getMaxTicks__E                            
1001c0b5  ti_sysbios_knl_Clock_TimerProxy_setNextTick__E                            
1001c0c5  ti_sysbios_knl_Semaphore_Instance_finalize__E                             
1001c0d5  ti_sysbios_knl_Swi_disable__E                                             
1001c0e5  ti_sysbios_knl_Swi_enabled__E                                             
1001c0f5  ti_sysbios_knl_Task_disable__E                                            
1001c105  ti_sysbios_heaps_HeapMem_restore__E                                       
1001c113  ti_sysbios_knl_Queue_empty__E                                             
1001c121  ti_sysbios_knl_Queue_remove__E                                            
1001c12f  ti_sysbios_family_arm_cc26xx_TimestampProvider_getFreq__E                 
1001c12f  xdc_runtime_Timestamp_SupportProxy_getFreq__E                             
1001c12f  xdc_runtime_Timestamp_getFreq__E                                          
1001c13d  ti_sysbios_family_arm_m3_Hwi_Params__init__S                              
1001c13d  ti_sysbios_hal_Hwi_HwiProxy_Params__init__S                               
1001c149  ti_sysbios_family_arm_m3_Hwi_disableFxn__E                                
1001c155  ti_sysbios_family_arm_m3_Hwi_enableFxn__E                                 
1001c161  ti_sysbios_family_arm_m3_TaskSupport_getStackAlignment__E                 
1001c16d  ti_sysbios_gates_GateHwi_enter__E                                         
1001c179  ti_sysbios_BIOS_RtsGateProxy_Params__init__S                              
1001c179  ti_sysbios_gates_GateMutex_Params__init__S                                
1001c179  ti_sysbios_heaps_HeapMem_Module_GateProxy_Params__init__S                 
1001c185  ti_sysbios_knl_Clock_Params__init__S                                      
1001c191  ti_sysbios_knl_Clock_getTimerHandle__E                                    
1001c19d  ti_sysbios_knl_Mailbox_Params__init__S                                    
1001c1a9  ti_sysbios_knl_Queue_dequeue__E                                           
1001c1b5  ti_sysbios_knl_Queue_enqueue__E                                           
1001c1c1  ti_sysbios_knl_Semaphore_Params__init__S                                  
1001c1cd  ti_sysbios_knl_Swi_Params__init__S                                        
1001c1d9  ti_sysbios_knl_Task_Params__init__S                                       
1001c1e5  ti_sysbios_knl_Task_self__E                                               
1001c1f1  ti_sysbios_hal_Hwi_Instance_finalize__E                                   
1001c1fb  ti_sysbios_family_arm_m3_Hwi_doSwiRestore__I                              
1001c203  ti_sysbios_family_arm_m3_Hwi_startup__E                                   
1001c20b  ti_sysbios_knl_Idle_loop__E                                               
1001c213  ti_sysbios_family_arm_m3_Hwi_doTaskRestore__I                             
1001c219  ti_sysbios_family_arm_m3_Hwi_restoreFxn__E                                
1001c21f  ti_sysbios_gates_GateHwi_leave__E                                         
1001c22b  ti_sysbios_knl_Queue_Instance_init__E                                     
1001c231  ti_sysbios_knl_Queue_elemClear__E                                         
1001c237  ti_sysbios_knl_Swi_Module_startup__E                                      
1001c23d  ti_sysbios_knl_Swi_startup__E                                             
1001c243  ti_sysbios_knl_Task_enable__E                                             
1001c249  ti_sysbios_BIOS_RtsGateProxy_enter__E                                     
1001c24d  ti_sysbios_BIOS_RtsGateProxy_leave__E                                     
1001c251  ti_sysbios_family_arm_cc26xx_Timer_getExpiredTicks__E                     
1001c255  ti_sysbios_family_arm_cc26xx_Timer_getPeriod__E                           
1001c259  ti_sysbios_family_arm_cc26xx_Timer_setPeriod__E                           
1001c25d  ti_sysbios_family_arm_m3_Hwi_delete                                       
1001c261  ti_sysbios_family_arm_m3_Hwi_destruct                                     
1001c265  ti_sysbios_family_arm_m3_TaskSupport_Module__startupDone__S               
1001c269  ti_sysbios_gates_GateHwi_query__E                                         
1001c269  xdc_runtime_System_Module_GateProxy_query__E                              
1001c26d  ti_sysbios_gates_GateMutex_delete                                         
1001c271  ti_sysbios_gates_GateMutex_destruct                                       
1001c275  ti_sysbios_BIOS_RtsGateProxy_query__E                                     
1001c275  ti_sysbios_gates_GateMutex_query__E                                       
1001c275  ti_sysbios_heaps_HeapMem_Module_GateProxy_query__E                        
1001c279  ti_sysbios_hal_Hwi_HwiProxy_Module__startupDone__S                        
1001c27d  ti_sysbios_hal_Hwi_HwiProxy_delete                                        
1001c281  ti_sysbios_hal_Hwi_HwiProxy_disableInterrupt__E                           
1001c281  ti_sysbios_hal_Hwi_disableInterrupt__E                                    
1001c285  ti_sysbios_hal_Hwi_HwiProxy_enableInterrupt__E                            
1001c285  ti_sysbios_hal_Hwi_enableInterrupt__E                                     
1001c289  ti_sysbios_hal_Hwi_HwiProxy_getStackInfo__E                               
1001c289  ti_sysbios_hal_Hwi_getStackInfo__E                                        
1001c28d  ti_sysbios_hal_Hwi_HwiProxy_startup__E                                    
1001c28d  ti_sysbios_hal_Hwi_startup__E                                             
1001c291  ti_sysbios_hal_Hwi_HwiProxy_switchFromBootStack__E                        
1001c295  ti_sysbios_hal_Hwi_delete                                                 
1001c299  ti_sysbios_hal_Hwi_switchFromBootStack__E                                 
1001c29d  ti_sysbios_heaps_HeapMem_Module_GateProxy_enter__E                        
1001c2a1  ti_sysbios_heaps_HeapMem_Module_GateProxy_leave__E                        
1001c2a5  ti_sysbios_heaps_HeapMem_isBlocking__E                                    
1001c2a9  ti_sysbios_knl_Clock_TimerProxy_Module__startupDone__S                    
1001c2ad  ti_sysbios_knl_Clock_TimerProxy_getExpiredTicks__E                        
1001c2b1  ti_sysbios_knl_Clock_TimerProxy_getPeriod__E                              
1001c2b5  ti_sysbios_knl_Clock_delete                                               
1001c2b9  ti_sysbios_knl_Clock_destruct                                             
1001c2bd  ti_sysbios_knl_Clock_removeI__E                                           
1001c2c1  ti_sysbios_knl_Clock_setTimeout__E                                        
1001c2c5  ti_sysbios_knl_Mailbox_delete                                             
1001c2c9  ti_sysbios_knl_Mailbox_destruct                                           
1001c2cd  ti_sysbios_knl_Queue_delete                                               
1001c2d1  ti_sysbios_knl_Queue_destruct                                             
1001c2d5  ti_sysbios_knl_Queue_head__E                                              
1001c2d9  ti_sysbios_knl_Queue_next__E                                              
1001c2dd  ti_sysbios_knl_Semaphore_delete                                           
1001c2e1  ti_sysbios_knl_Semaphore_destruct                                         
1001c2e5  ti_sysbios_knl_Swi_delete                                                 
1001c2e9  ti_sysbios_knl_Swi_destruct                                               
1001c2ed  ti_sysbios_knl_Swi_postInit__I                                            
1001c2f1  ti_sysbios_knl_Task_SupportProxy_Module__startupDone__S                   
1001c2f5  ti_sysbios_knl_Task_SupportProxy_getStackAlignment__E                     
1001c2f9  ti_sysbios_knl_Task_SupportProxy_start__E                                 
1001c2fd  ti_sysbios_knl_Task_SupportProxy_swap__E                                  
1001c301  ti_sysbios_knl_Task_delete                                                
1001c305  ti_sysbios_knl_Task_destruct                                              
1001c309  ti_sysbios_knl_Task_startup__E                                            
1001c30d  xdc_runtime_Startup_startMods__I                                          
1001c405  xdc_runtime_Core_createObject__I                                          
1001c487  xdc_runtime_Error_policySpin__E                                           
1001c489  xdc_runtime_Memory_alloc__E                                               
1001c4f9  xdc_runtime_Core_deleteObject__I                                          
1001c559  xdc_runtime_Startup_exec__E                                               
1001c5a9  xdc_runtime_Assert_raise__I                                               
1001c5f1  xdc_runtime_Core_assignParams__I                                          
1001c639  xdc_runtime_Core_constructObject__I                                       
1001c681  xdc_runtime_System_atexit__E                                              
1001c6b9  xdc_runtime_System_processAtExit__E                                       
1001c6ed  xdc_runtime_Core_assignLabel__I                                           
1001c71d  xdc_runtime_Text_cordText__E                                              
1001c749  xdc_runtime_System_abort__E                                               
1001c769  xdc_runtime_Error_raiseX__E                                               
1001c785  xdc_runtime_Memory_valloc__E                                              
1001c7a1  xdc_runtime_Core_destructObject__I                                        
1001c7b9  xdc_runtime_Error_check__E                                                
1001c7d1  xdc_runtime_System_exit__E                                                
1001c7e9  xdc_runtime_Text_ropeText__E                                              
1001c801  xdc_runtime_Memory_free__E                                                
1001c811  xdc_runtime_SysCallback_abort__E                                          
1001c821  xdc_runtime_SysCallback_exit__E                                           
1001c831  xdc_runtime_Timestamp_SupportProxy_get32__E                               
1001c831  xdc_runtime_Timestamp_get32__E                                            
1001c841  xdc_runtime_Error_init__E                                                 
1001c84d  xdc_runtime_Memory_calloc__E                                              
1001c859  xdc_runtime_Memory_getMaxDefaultTypeAlign__E                              
1001c879  xdc_runtime_Gate_leaveSystem__E                                           
1001c87f  xdc_runtime_System_Module_startup__E                                      
1001c885  xdc_runtime_Gate_enterSystem__E                                           
1001c889  xdc_runtime_Memory_HeapProxy_alloc__E                                     
1001c88d  xdc_runtime_Memory_HeapProxy_free__E                                      
1001c891  xdc_runtime_System_Module_GateProxy_enter__E                              
1001c895  xdc_runtime_System_Module_GateProxy_leave__E                              
1001c899  xdc_runtime_System_abortSpin__E                                           
1001c89b  xdc_runtime_System_exitSpin__E                                            
1001c89d  ti_sysbios_family_arm_m3_Hwi_dispatch__I                                  
1001c96d  ti_sysbios_family_arm_m3_TaskSupport_buildTaskStack                       
1001c9b9  ti_sysbios_family_arm_m3_Hwi_initStacks__E                                
1001ca01  ti_sysbios_family_arm_m3_Hwi_excHandlerAsm__I                             
1001ca21  ti_sysbios_family_xxx_Hwi_switchAndRunFunc                                
1001ca3f  ti_sysbios_family_arm_m3_Hwi_pendSV__I                                    
1001ca57  ti_sysbios_family_arm_m3_Hwi_return                                       
1001ca59  ti_sysbios_family_arm_m3_TaskSupport_glue                                 
1001ca69  ti_sysbios_family_arm_m3_TaskSupport_swap__E                              
1001ca71  ti_sysbios_knl_Task_swapReturn                                            
1001ca9b  ti_sysbios_rom_cortexm_cc26xx_CC26xx_getRevision__E                       
20000000  ti_sysbios_family_arm_m3_Hwi_ramVectors                                   
20000100  ti_sysbios_knl_Task_Module__state__V                                      
20000144  ti_sysbios_family_arm_m3_Hwi_Module__state__V                             
20000178  ti_sysbios_knl_Clock_Module__state__V                                     
200001a4  ti_sysbios_BIOS_Module__state__V                                          
200001c8  ti_sysbios_knl_Swi_Module__state__V                                       
200001e4  ti_sysbios_family_arm_cc26xx_Timer_Module__state__V                       
200001ec  ti_sysbios_family_arm_cc26xx_TimestampProvider_Module__state__V           
200001f0  xdc_runtime_Startup_Module__state__V                                      
200001f8  xdc_runtime_System_Module__state__V                                       
20000200  xdc_runtime_Memory_Module__state__V                                       
20000520  receiveStack                                                              
20001120  hub                                                                       
20001558  ti_sysbios_heaps_HeapMem_Instance_State_0_buf__A                          
20001958  timerStack                                                                
20001d58  ti_sysbios_knl_Task_Instance_State_0_stack__A                             
20001f58  spiCC26XXDMAObjects                                                       
20002110  __CIOBUF_                                                                 
20002230  uartCC26XXObjects                                                         
20002344  blinkStack                                                                
20002444  i2cCC26XXObjects                                                          
20002524  ti_sysbios_family_arm_m3_Hwi_dispatchTable                                
200025ec  xdc_runtime_SysMin_Module_State_0_outbuf__A                               
2000266c  PIN_HandleTable                                                           
200026e8  adcCC26xxObjects                                                          
20002760  blinkStruct                                                               
200027b0  receiveStruct                                                             
20002800  timerStruct                                                               
200028c4  udmaObjects                                                               
200029a0  PIN_NumPins                                                               
200029a4  clkHandle                                                                 
200029a8  intPinHandle                                                              
200029b0  driverlib_release_0_46593                                                 
200029b8  PowerCC26XX_module                                                        
20002ac8  ti_sysbios_knl_Task_Object__table__V                                      
20002b18  ti_sysbios_family_arm_cc26xx_Timer_Object__table__V                       
20002b60  ti_sysbios_gates_GateMutex_Object__table__V                               
20002b98  ti_sysbios_knl_Swi_Module_State_0_readyQ__A                               
20002bc8  ti_sysbios_knl_Swi_Object__table__V                                       
20002bf8  ti_sysbios_knl_Clock_Object__table__V                                     
20002c18  ti_sysbios_knl_Task_Module_State_0_readyQ__A                              
20002c38  ledPinTable                                                               
20002c50  ti_sysbios_family_arm_m3_Hwi_Object__table__V                             
20002c68  ti_sysbios_heaps_HeapMem_Object__table__V                                 
20002c90  xdc_runtime_SysMin_Module__state__V                                       
20002ca8  _lock                                                                     
20002cac  _unlock                                                                   
20002cb8  interrupt_gpio                                                            
20002cc0  ti_sysbios_family_arm_m3_Hwi_Module__root__V                              
20002cc8  ti_sysbios_gates_GateHwi_Module__root__V                                  
20002cd0  ti_sysbios_gates_GateMutex_Module__root__V                                
20002cd8  ti_sysbios_hal_Hwi_Module__root__V                                        
20002ce0  ti_sysbios_heaps_HeapMem_Module__root__V                                  
20002ce8  ti_sysbios_knl_Clock_Module__root__V                                      
20002cf0  ti_sysbios_knl_Mailbox_Module__root__V                                    
20002cf8  ti_sysbios_knl_Queue_Module__root__V                                      
20002d00  ti_sysbios_knl_Semaphore_Module__root__V                                  
20002d08  ti_sysbios_knl_Swi_Module__root__V                                        
20002d10  ti_sysbios_knl_Task_Module__root__V                                       
20002d18  xdc_runtime_System_Module_State_0_atexitHandlers__A                       
20002d26  ti_sysbios_family_arm_m3_Hwi_Module_State_0_excActive__A                  
20002d34  main_func_sp                                                              
20002d38  ti_sysbios_family_arm_m3_Hwi_Module_State_0_excContext__A                 
20002d3c  ti_sysbios_family_arm_m3_Hwi_Module_State_0_excStack__A                   
20002d40  ti_sysbios_knl_Task_Module_State_0_idleTask__A                            
20004d00  __stack                                                                   
20005000  __STACK_END                                                               
e000e000  ti_sysbios_family_arm_m3_Hwi_nvic                                         
ffffffff  __TI_pprof_out_hndl                                                       
ffffffff  __TI_prof_data_size                                                       
ffffffff  __TI_prof_data_start                                                      
ffffffff  __binit__                                                                 
ffffffff  __c_args__                                                                
ffffffff  binit                                                                     
UNDEFED   HwiP_restore                                                              
UNDEFED   SHT$$INIT_ARRAY$$Base                                                     
UNDEFED   SHT$$INIT_ARRAY$$Limit                                                    
UNDEFED   ti_sysbios_BIOS_RtsGateProxy_Handle__label__S__mangled__                  
UNDEFED   ti_sysbios_BIOS_RtsGateProxy_Object__delete__S__mangled__                 
UNDEFED   ti_sysbios_BIOS_RtsGateProxy_Params__init__S__mangled__                   
UNDEFED   ti_sysbios_BIOS_RtsGateProxy_query__E__mangled__                          
UNDEFED   ti_sysbios_hal_Hwi_HwiProxy_Module__startupDone__S__mangled__             
UNDEFED   ti_sysbios_hal_Hwi_HwiProxy_Object__delete__S__mangled__                  
UNDEFED   ti_sysbios_hal_Hwi_HwiProxy_Params__init__S__mangled__                    
UNDEFED   ti_sysbios_hal_Hwi_HwiProxy_disableInterrupt__E__mangled__                
UNDEFED   ti_sysbios_hal_Hwi_HwiProxy_enableInterrupt__E__mangled__                 
UNDEFED   ti_sysbios_hal_Hwi_HwiProxy_getStackInfo__E__mangled__                    
UNDEFED   ti_sysbios_hal_Hwi_HwiProxy_startup__E__mangled__                         
UNDEFED   ti_sysbios_hal_Hwi_HwiProxy_switchFromBootStack__E__mangled__             
UNDEFED   ti_sysbios_hal_Hwi_disableInterrupt__E                                    
UNDEFED   ti_sysbios_hal_Hwi_enableInterrupt__E                                     
UNDEFED   ti_sysbios_hal_Hwi_getStackInfo__E                                        
UNDEFED   ti_sysbios_hal_Hwi_startup__E                                             
UNDEFED   ti_sysbios_hal_Hwi_switchFromBootStack__E                                 
UNDEFED   ti_sysbios_heaps_HeapMem_Module_GateProxy_Handle__label__S__mangled__     
UNDEFED   ti_sysbios_heaps_HeapMem_Module_GateProxy_Object__delete__S__mangled__    
UNDEFED   ti_sysbios_heaps_HeapMem_Module_GateProxy_Params__init__S__mangled__      
UNDEFED   ti_sysbios_heaps_HeapMem_Module_GateProxy_query__E__mangled__             
UNDEFED   ti_sysbios_knl_Clock_TimerProxy_Module__startupDone__S__mangled__         
UNDEFED   ti_sysbios_knl_Clock_TimerProxy_startup__E__mangled__                     
UNDEFED   ti_sysbios_knl_Task_SupportProxy_Module__startupDone__S__mangled__        
UNDEFED   ti_sysbios_knl_Task_SupportProxy_getStackAlignment__E__mangled__          
UNDEFED   ti_sysbios_knl_Task_SupportProxy_start__E__mangled__                      
UNDEFED   ti_sysbios_knl_Task_SupportProxy_swap__E__mangled__                       
UNDEFED   xdc_runtime_Main_Module_GateProxy_Handle__label__S                        
UNDEFED   xdc_runtime_Main_Module_GateProxy_Object__delete__S                       
UNDEFED   xdc_runtime_Main_Module_GateProxy_query__E                                
UNDEFED   xdc_runtime_Memory_HeapProxy_Handle__label__S__mangled__                  
UNDEFED   xdc_runtime_Memory_HeapProxy_Object__delete__S__mangled__                 
UNDEFED   xdc_runtime_System_Module_GateProxy_Handle__label__S__mangled__           
UNDEFED   xdc_runtime_System_Module_GateProxy_Object__delete__S__mangled__          
UNDEFED   xdc_runtime_System_Module_GateProxy_query__E__mangled__                   
UNDEFED   xdc_runtime_Timestamp_SupportProxy_get64__E__mangled__                    
UNDEFED   xdc_runtime_Timestamp_SupportProxy_getFreq__E__mangled__                  
UNDEFED   xdc_runtime_Timestamp_get32__E                                            
UNDEFED   xdc_runtime_Timestamp_get64__E                                            
UNDEFED   xdc_runtime_Timestamp_getFreq__E                                          

[820 symbols]
